(dp0
S'train_weighted_loss'
p1
(lp2
cnumpy.core.multiarray
scalar
p3
(cnumpy
dtype
p4
(S'f8'
p5
I0
I1
tp6
Rp7
(I3
S'<'
p8
NNNI-1
I-1
I0
tp9
bS'\x00\x00\x00\xc03\xa5\x14@'
p10
tp11
Rp12
ag3
(g7
S'\x00\x00\x00\xc0\x9a\x035@'
p13
tp14
Rp15
ag3
(g7
S'\x00\x00\x00\xa0\x95\xf8\x1b@'
p16
tp17
Rp18
ag3
(g7
S'\x00\x00\x00\xa0\x9dK8@'
p19
tp20
Rp21
ag3
(g7
S'\x00\x00\x00\x80\x82"7@'
p22
tp23
Rp24
ag3
(g7
S'\x00\x00\x00\xe0\xbb\x821@'
p25
tp26
Rp27
ag3
(g7
S'\x00\x00\x00\x80\xe8\x16)@'
p28
tp29
Rp30
ag3
(g7
S'\x00\x00\x00`\x1c{\x0f@'
p31
tp32
Rp33
ag3
(g7
S'\x00\x00\x00`8\r<@'
p34
tp35
Rp36
ag3
(g7
S'\x00\x00\x00\x00;\x16<@'
p37
tp38
Rp39
ag3
(g7
S'\x00\x00\x00\x00/$;@'
p40
tp41
Rp42
ag3
(g7
S'\x00\x00\x00\xa0\x17]9@'
p43
tp44
Rp45
ag3
(g7
S'\x00\x00\x00`P\xc25@'
p46
tp47
Rp48
ag3
(g7
S'\x00\x00\x00@XU3@'
p49
tp50
Rp51
ag3
(g7
S'\x00\x00\x00`\xae\x9b,@'
p52
tp53
Rp54
ag3
(g7
S'\x00\x00\x00\xc0\xa2]&@'
p55
tp56
Rp57
ag3
(g7
S'\x00\x00\x00\xe0\xb4\xec\x16@'
p58
tp59
Rp60
ag3
(g7
S'\x00\x00\x00\xe0\x80\xa56@'
p61
tp62
Rp63
ag3
(g7
S'\x00\x00\x00\xc0\xc0\x034@'
p64
tp65
Rp66
ag3
(g7
S'\x00\x00\x00\x00\xf4M%@'
p67
tp68
Rp69
ag3
(g7
S'\x00\x00\x00\xc0\x07X=@'
p70
tp71
Rp72
ag3
(g7
S'\x00\x00\x00`\x1c\x04<@'
p73
tp74
Rp75
ag3
(g7
S'\x00\x00\x00\x00l\x889@'
p76
tp77
Rp78
ag3
(g7
S'\x00\x00\x00\xc0\r\xf23@'
p79
tp80
Rp81
ag3
(g7
S'\x00\x00\x00\xa0\xba\x9c1@'
p82
tp83
Rp84
ag3
(g7
S"\x00\x00\x00\xa0J('@"
p85
tp86
Rp87
ag3
(g7
S'\x00\x00\x00\x80i\x9a2@'
p88
tp89
Rp90
ag3
(g7
S'\x00\x00\x00\xc0Y\x840@'
p91
tp92
Rp93
ag3
(g7
S'\x00\x00\x00\xc0\x12\xf9(@'
p94
tp95
Rp96
ag3
(g7
S'\x00\x00\x00\x00\x9d\x8d!@'
p97
tp98
Rp99
ag3
(g7
S'\x00\x00\x00\x80\xbf\x85,@'
p100
tp101
Rp102
ag3
(g7
S'\x00\x00\x00\xa0\xc0\xde+@'
p103
tp104
Rp105
ag3
(g7
S'\x00\x00\x00\xe0X\x1a(@'
p106
tp107
Rp108
ag3
(g7
S'\x00\x00\x00\xc0\xbc/$@'
p109
tp110
Rp111
ag3
(g7
S'\x00\x00\x00@|\xa2\x18@'
p112
tp113
Rp114
ag3
(g7
S'\x00\x00\x00\xc0\x98Q>@'
p115
tp116
Rp117
ag3
(g7
S'\x00\x00\x00\x00dY:@'
p118
tp119
Rp120
ag3
(g7
S'\x00\x00\x00\x80\x18\x84.@'
p121
tp122
Rp123
ag3
(g7
S'\x00\x00\x00\xa0d\x11#@'
p124
tp125
Rp126
ag3
(g7
S'\x00\x00\x00\xe0\xa5v5@'
p127
tp128
Rp129
ag3
(g7
S'\x00\x00\x00\xc0W\xb42@'
p130
tp131
Rp132
ag3
(g7
S'\x00\x00\x00 ^\x822@'
p133
tp134
Rp135
ag3
(g7
S'\x00\x00\x00\xe0\x0c.&@'
p136
tp137
Rp138
ag3
(g7
S'\x00\x00\x00\xc03\x9d\x1b@'
p139
tp140
Rp141
ag3
(g7
S'\x00\x00\x00`X\xf70@'
p142
tp143
Rp144
ag3
(g7
S'\x00\x00\x00 9\xbb-@'
p145
tp146
Rp147
ag3
(g7
S'\x00\x00\x00`C\xab#@'
p148
tp149
Rp150
ag3
(g7
S'\x00\x00\x00\xa0@w"@'
p151
tp152
Rp153
ag3
(g7
S'\x00\x00\x00\xc0N\xe2!@'
p154
tp155
Rp156
ag3
(g7
S'\x00\x00\x00`+\x995@'
p157
tp158
Rp159
ag3
(g7
S'\x00\x00\x00 \xb0\xe50@'
p160
tp161
Rp162
ag3
(g7
S'\x00\x00\x00\xe0\x19\xaf\x1c@'
p163
tp164
Rp165
ag3
(g7
S'\x00\x00\x00\x00H\xd0 @'
p166
tp167
Rp168
ag3
(g7
S'\x00\x00\x00\xe0z\x9b0@'
p169
tp170
Rp171
ag3
(g7
S'\x00\x00\x00 [\xa3&@'
p172
tp173
Rp174
ag3
(g7
S'\x00\x00\x00 \xd6Z%@'
p175
tp176
Rp177
ag3
(g7
S'\x00\x00\x00\xe0\xa0\x8b$@'
p178
tp179
Rp180
ag3
(g7
S'\x00\x00\x00 \xac\xa40@'
p181
tp182
Rp183
ag3
(g7
S'\x00\x00\x00\xc0\x9b`\x1d@'
p184
tp185
Rp186
ag3
(g7
S'\x00\x00\x00\xa0\x17$#@'
p187
tp188
Rp189
ag3
(g7
S'\x00\x00\x00\x80c\x96\x1d@'
p190
tp191
Rp192
ag3
(g7
S'\x00\x00\x00\x00DH\x18@'
p193
tp194
Rp195
ag3
(g7
S'\x00\x00\x00\xa0\xbav%@'
p196
tp197
Rp198
ag3
(g7
S'\x00\x00\x00@\x83\xac%@'
p199
tp200
Rp201
ag3
(g7
S'\x00\x00\x00\xe0\x8d%\x1c@'
p202
tp203
Rp204
ag3
(g7
S'\x00\x00\x00\x80NF(@'
p205
tp206
Rp207
ag3
(g7
S'\x00\x00\x00\x80U\x15\x1b@'
p208
tp209
Rp210
ag3
(g7
S'\x00\x00\x00 \x9e\xfa#@'
p211
tp212
Rp213
ag3
(g7
S'\x00\x00\x00\xe0\xb7Z\x1b@'
p214
tp215
Rp216
ag3
(g7
S'\x00\x00\x00@&\xa7\x15@'
p217
tp218
Rp219
ag3
(g7
S'\x00\x00\x00\xe0 \x11\x0c@'
p220
tp221
Rp222
ag3
(g7
S'\x00\x00\x00\x80\xd4\xf2-@'
p223
tp224
Rp225
ag3
(g7
S'\x00\x00\x00`\x82}\x15@'
p226
tp227
Rp228
ag3
(g7
S"\x00\x00\x00\xc0p'#@"
p229
tp230
Rp231
ag3
(g7
S'\x00\x00\x00\xa0*\x12\x18@'
p232
tp233
Rp234
ag3
(g7
S'\x00\x00\x00\x00\x91\x9c\x1a@'
p235
tp236
Rp237
ag3
(g7
S'\x00\x00\x00\x00T\xf7\x0f@'
p238
tp239
Rp240
ag3
(g7
S'\x00\x00\x00 \xc4\x85\x10@'
p241
tp242
Rp243
ag3
(g7
S'\x00\x00\x00\x80\xee{%@'
p244
tp245
Rp246
ag3
(g7
S'\x00\x00\x00`\xeeO\x17@'
p247
tp248
Rp249
ag3
(g7
S'\x00\x00\x00\xa0\xaa\xa8\x14@'
p250
tp251
Rp252
ag3
(g7
S'\x00\x00\x00@\xe5,\r@'
p253
tp254
Rp255
ag3
(g7
S"\x00\x00\x00\x80$'\x17@"
p256
tp257
Rp258
ag3
(g7
S'\x00\x00\x00\xe0i\x97\x17@'
p259
tp260
Rp261
ag3
(g7
S'\x00\x00\x00\x00\x1e\xb7\x16@'
p262
tp263
Rp264
ag3
(g7
S'\x00\x00\x00`\xf8c\xf7?'
p265
tp266
Rp267
ag3
(g7
S'\x00\x00\x00\x00\xcae)@'
p268
tp269
Rp270
ag3
(g7
S'\x00\x00\x00\x80a\xaa\x1c@'
p271
tp272
Rp273
ag3
(g7
S'\x00\x00\x00 \x1d\xd6\xfe?'
p274
tp275
Rp276
ag3
(g7
S'\x00\x00\x00\xc0%]\x14@'
p277
tp278
Rp279
ag3
(g7
S'\x00\x00\x00\x00R\x18\xfe?'
p280
tp281
Rp282
ag3
(g7
S'\x00\x00\x00\xc0\xc9n)@'
p283
tp284
Rp285
ag3
(g7
S'\x00\x00\x00@\x97\x16\x13@'
p286
tp287
Rp288
ag3
(g7
S'\x00\x00\x00\x80\xdc\x1c\n@'
p289
tp290
Rp291
ag3
(g7
S'\x00\x00\x00\x00u\x0e\x12@'
p292
tp293
Rp294
ag3
(g7
S'\x00\x00\x00\x80\xdaw\x03@'
p295
tp296
Rp297
ag3
(g7
S'\x00\x00\x00\x80\xa7\x1e\x03@'
p298
tp299
Rp300
ag3
(g7
S'\x00\x00\x00@\x94\x05\x11@'
p301
tp302
Rp303
ag3
(g7
S'\x00\x00\x00@WP\x18@'
p304
tp305
Rp306
ag3
(g7
S'\x00\x00\x00\x80*T\xec?'
p307
tp308
Rp309
ag3
(g7
S'\x00\x00\x00\x80\xd3\xb0\xf1?'
p310
tp311
Rp312
ag3
(g7
S'\x00\x00\x00`\xf0G"@'
p313
tp314
Rp315
ag3
(g7
S'\x00\x00\x00`-^\x13@'
p316
tp317
Rp318
ag3
(g7
S'\x00\x00\x00 \xbd&\xf0?'
p319
tp320
Rp321
ag3
(g7
S'\x00\x00\x00\x80\xf0\xc3\x1d@'
p322
tp323
Rp324
ag3
(g7
S'\x00\x00\x00\xa0\xf98\x05@'
p325
tp326
Rp327
ag3
(g7
S'\x00\x00\x00\xc0`\xc2\xfb?'
p328
tp329
Rp330
ag3
(g7
S'\x00\x00\x00`\x0f\x9f\x11@'
p331
tp332
Rp333
ag3
(g7
S'\x00\x00\x00\xa0I\xe8\x08@'
p334
tp335
Rp336
ag3
(g7
S'\x00\x00\x00`)c\xfd?'
p337
tp338
Rp339
ag3
(g7
S'\x00\x00\x00\xa0/%\x04@'
p340
tp341
Rp342
ag3
(g7
S'\x00\x00\x00 \xbbS\x16@'
p343
tp344
Rp345
ag3
(g7
S'\x00\x00\x00\xc0&h\xf9?'
p346
tp347
Rp348
ag3
(g7
S'\x00\x00\x00\xe0\xb3\xb2\x18@'
p349
tp350
Rp351
ag3
(g7
S'\x00\x00\x00\x80\x80\xa6\xfd?'
p352
tp353
Rp354
ag3
(g7
S'\x00\x00\x00 \xa8n\xfb?'
p355
tp356
Rp357
ag3
(g7
S'\x00\x00\x00@^\xf4\x16@'
p358
tp359
Rp360
ag3
(g7
S'\x00\x00\x00@\xee\x91\xfe?'
p361
tp362
Rp363
ag3
(g7
S'\x00\x00\x00\x00&,\xf2?'
p364
tp365
Rp366
ag3
(g7
S'\x00\x00\x00@\xb2\x14 @'
p367
tp368
Rp369
ag3
(g7
S'\x00\x00\x00\xc0\xc0`\x07@'
p370
tp371
Rp372
ag3
(g7
S'\x00\x00\x00@\xe4\x96\xf1?'
p373
tp374
Rp375
ag3
(g7
S'\x00\x00\x00`\xfa\x83\x1c@'
p376
tp377
Rp378
ag3
(g7
S'\x00\x00\x00\x00\xd6\xa3\xfc?'
p379
tp380
Rp381
ag3
(g7
S'\x00\x00\x00 u\xa7\x10@'
p382
tp383
Rp384
ag3
(g7
S'\x00\x00\x00\xc0\xee\x1d\xe6?'
p385
tp386
Rp387
ag3
(g7
S'\x00\x00\x00\x00\x9ej\x0f@'
p388
tp389
Rp390
ag3
(g7
S'\x00\x00\x00\x80vw\x07@'
p391
tp392
Rp393
ag3
(g7
S'\x00\x00\x00\x00=,\xe7?'
p394
tp395
Rp396
ag3
(g7
S'\x00\x00\x00\xc0R\xc3\x14@'
p397
tp398
Rp399
ag3
(g7
S'\x00\x00\x00 \xf4\xce\xea?'
p400
tp401
Rp402
ag3
(g7
S'\x00\x00\x00 \x0c\xb0\x01@'
p403
tp404
Rp405
ag3
(g7
S'\x00\x00\x00\xe0\xee\x10\x06@'
p406
tp407
Rp408
ag3
(g7
S'\x00\x00\x00\xe0\xd0}\x0e@'
p409
tp410
Rp411
ag3
(g7
S'\x00\x00\x00\x80\xa0\xe8\xf0?'
p412
tp413
Rp414
ag3
(g7
S'\x00\x00\x00\x80\x07\x05\x13@'
p415
tp416
Rp417
ag3
(g7
S'\x00\x00\x00 =]\xf6?'
p418
tp419
Rp420
ag3
(g7
S'\x00\x00\x00\x00\xe3\xd4\x18@'
p421
tp422
Rp423
ag3
(g7
S'\x00\x00\x00\xe0\xc8\xc8\xf3?'
p424
tp425
Rp426
ag3
(g7
S'\x00\x00\x00\x80\x10$\x03@'
p427
tp428
Rp429
ag3
(g7
S'\x00\x00\x00 \x1b\xe5\n@'
p430
tp431
Rp432
ag3
(g7
S'\x00\x00\x00 C\r\n@'
p433
tp434
Rp435
ag3
(g7
S'\x00\x00\x00\xe0\x1d\x15\xf5?'
p436
tp437
Rp438
ag3
(g7
S'\x00\x00\x00\x00\x7f\x1e\xff?'
p439
tp440
Rp441
ag3
(g7
S'\x00\x00\x00\x80\xc0\xee\x07@'
p442
tp443
Rp444
ag3
(g7
S'\x00\x00\x00 \xc9\xa8\x06@'
p445
tp446
Rp447
ag3
(g7
S'\x00\x00\x00@\xc4\x87\xfa?'
p448
tp449
Rp450
ag3
(g7
S'\x00\x00\x00@@L\x1b@'
p451
tp452
Rp453
ag3
(g7
S'\x00\x00\x00\x80\xcd1\xe6?'
p454
tp455
Rp456
ag3
(g7
S'\x00\x00\x00@\x03\xff\x00@'
p457
tp458
Rp459
ag3
(g7
S'\x00\x00\x00\x00E!\x15@'
p460
tp461
Rp462
ag3
(g7
S'\x00\x00\x00`:\x10\xec?'
p463
tp464
Rp465
ag3
(g7
S'\x00\x00\x00\xe0\xfd\x03\x1a@'
p466
tp467
Rp468
ag3
(g7
S'\x00\x00\x00\xc0\xf7\x0e\xf7?'
p469
tp470
Rp471
ag3
(g7
S'\x00\x00\x00\x00,n\x16@'
p472
tp473
Rp474
ag3
(g7
S'\x00\x00\x00\x00S\xcd\xf6?'
p475
tp476
Rp477
ag3
(g7
S'\x00\x00\x00\xc0\xa1@\x18@'
p478
tp479
Rp480
ag3
(g7
S'\x00\x00\x00\xa0\xc0\x95\xf0?'
p481
tp482
Rp483
ag3
(g7
S'\x00\x00\x00\x80\xf6<\x1d@'
p484
tp485
Rp486
ag3
(g7
S'\x00\x00\x00\x00:.\x00@'
p487
tp488
Rp489
ag3
(g7
S'\x00\x00\x00\x80V#\x08@'
p490
tp491
Rp492
ag3
(g7
S'\x00\x00\x00\x80\x89:\x13@'
p493
tp494
Rp495
ag3
(g7
S'\x00\x00\x00 Q\xfe\xe9?'
p496
tp497
Rp498
ag3
(g7
S'\x00\x00\x00 2\xb5\x16@'
p499
tp500
Rp501
ag3
(g7
S'\x00\x00\x00 \x95\xc1\x00@'
p502
tp503
Rp504
ag3
(g7
S'\x00\x00\x00\xe0\xdbj\xf2?'
p505
tp506
Rp507
ag3
(g7
S'\x00\x00\x00@\x8a=\x15@'
p508
tp509
Rp510
ag3
(g7
S'\x00\x00\x00\x80a\xfd\xed?'
p511
tp512
Rp513
ag3
(g7
S'\x00\x00\x00\x80\x92\x8e\x18@'
p514
tp515
Rp516
ag3
(g7
S'\x00\x00\x00 \xa5\xee\xff?'
p517
tp518
Rp519
ag3
(g7
S'\x00\x00\x00\x00\xff\xd8\xf2?'
p520
tp521
Rp522
ag3
(g7
S'\x00\x00\x00\x00[\xd9\t@'
p523
tp524
Rp525
ag3
(g7
S'\x00\x00\x00\xc0\x1fq\xfe?'
p526
tp527
Rp528
ag3
(g7
S'\x00\x00\x00\x00X\x12\xfe?'
p529
tp530
Rp531
ag3
(g7
S'\x00\x00\x00\xe0\xae\x8a\x03@'
p532
tp533
Rp534
ag3
(g7
S'\x00\x00\x00@U\xc7\xe1?'
p535
tp536
Rp537
ag3
(g7
S'\x00\x00\x00\xe0*\xb3\x19@'
p538
tp539
Rp540
ag3
(g7
S'\x00\x00\x00\xa0@\xe3\xf5?'
p541
tp542
Rp543
ag3
(g7
S'\x00\x00\x00\xc0>\x11\x0e@'
p544
tp545
Rp546
ag3
(g7
S'\x00\x00\x00\xa0\xd8\xa3\x08@'
p547
tp548
Rp549
ag3
(g7
S'\x00\x00\x00\xa0\xfe\x17\xe0?'
p550
tp551
Rp552
ag3
(g7
S'\x00\x00\x00\xc0!=\x13@'
p553
tp554
Rp555
ag3
(g7
S'\x00\x00\x00\xe0\xca\x87\x08@'
p556
tp557
Rp558
ag3
(g7
S'\x00\x00\x00\xc0*R\xff?'
p559
tp560
Rp561
ag3
(g7
S'\x00\x00\x00@Ko\xff?'
p562
tp563
Rp564
ag3
(g7
S'\x00\x00\x00@\xde\x0e\xfe?'
p565
tp566
Rp567
ag3
(g7
S'\x00\x00\x00@\xd81\x0c@'
p568
tp569
Rp570
ag3
(g7
S'\x00\x00\x00\x00W\r\xf4?'
p571
tp572
Rp573
ag3
(g7
S'\x00\x00\x00@S1\x08@'
p574
tp575
Rp576
ag3
(g7
S'\x00\x00\x00\xa0\x04\x89\x06@'
p577
tp578
Rp579
ag3
(g7
S'\x00\x00\x00\xa0[\x90\x03@'
p580
tp581
Rp582
ag3
(g7
S'\x00\x00\x00\x80\xfa)\x05@'
p583
tp584
Rp585
ag3
(g7
S'\x00\x00\x00@t]\xfe?'
p586
tp587
Rp588
ag3
(g7
S'\x00\x00\x00\xa0\xa9\xd5\xfc?'
p589
tp590
Rp591
ag3
(g7
S'\x00\x00\x00 \xa3\x86\x0c@'
p592
tp593
Rp594
ag3
(g7
S'\x00\x00\x00\x80\xfe\xd4\xf5?'
p595
tp596
Rp597
ag3
(g7
S'\x00\x00\x00\xc0a\x0b\x1d@'
p598
tp599
Rp600
ag3
(g7
S'\x00\x00\x00\x00\xa9\xa3\x02@'
p601
tp602
Rp603
ag3
(g7
S"\x00\x00\x00@'\x11\x03@"
p604
tp605
Rp606
ag3
(g7
S'\x00\x00\x00\x00\xf2`\x07@'
p607
tp608
Rp609
ag3
(g7
S'\x00\x00\x00\xa0\x8eG\x10@'
p610
tp611
Rp612
ag3
(g7
S'\x00\x00\x00`\xd1\x9d\x05@'
p613
tp614
Rp615
ag3
(g7
S"\x00\x00\x00\xe0\x01'\x01@"
p616
tp617
Rp618
ag3
(g7
S'\x00\x00\x00@\x15c\x0e@'
p619
tp620
Rp621
ag3
(g7
S'\x00\x00\x00 \x98\x8a\xf3?'
p622
tp623
Rp624
ag3
(g7
S'\x00\x00\x00\x80E{\x12@'
p625
tp626
Rp627
ag3
(g7
S'\x00\x00\x00@fr\r@'
p628
tp629
Rp630
ag3
(g7
S'\x00\x00\x00\x00\xe4 \xe5?'
p631
tp632
Rp633
ag3
(g7
S'\x00\x00\x00\x00\x1bG\x1d@'
p634
tp635
Rp636
ag3
(g7
S'\x00\x00\x00@.\xad\x0b@'
p637
tp638
Rp639
ag3
(g7
S'\x00\x00\x00\x80M\x82\xe5?'
p640
tp641
Rp642
ag3
(g7
S'\x00\x00\x00@\x14\xdf\x14@'
p643
tp644
Rp645
ag3
(g7
S'\x00\x00\x00@\xb8\t\xf9?'
p646
tp647
Rp648
ag3
(g7
S'\x00\x00\x00\xe0t\xe5\x13@'
p649
tp650
Rp651
ag3
(g7
S'\x00\x00\x00\xc0\xa9\xab\n@'
p652
tp653
Rp654
ag3
(g7
S'\x00\x00\x00\xe0\x9b\x11\x02@'
p655
tp656
Rp657
ag3
(g7
S'\x00\x00\x00\x80`i\x08@'
p658
tp659
Rp660
ag3
(g7
S'\x00\x00\x00@\x0c\x1e\x08@'
p661
tp662
Rp663
ag3
(g7
S'\x00\x00\x00@\x9b\x03\x10@'
p664
tp665
Rp666
ag3
(g7
S'\x00\x00\x00\xc0$\xbc\xe6?'
p667
tp668
Rp669
ag3
(g7
S'\x00\x00\x00\x00\xd2i\x1a@'
p670
tp671
Rp672
ag3
(g7
S'\x00\x00\x00`|\xfd\xf0?'
p673
tp674
Rp675
ag3
(g7
S'\x00\x00\x00\xc0\xa1A\x1c@'
p676
tp677
Rp678
ag3
(g7
S'\x00\x00\x00\x80\x13\xc7\xff?'
p679
tp680
Rp681
ag3
(g7
S'\x00\x00\x00@w\x9e\x11@'
p682
tp683
Rp684
ag3
(g7
S'\x00\x00\x00\xe06\xae\r@'
p685
tp686
Rp687
ag3
(g7
S'\x00\x00\x00`\x82\xaa\xfa?'
p688
tp689
Rp690
ag3
(g7
S'\x00\x00\x00`oX\x04@'
p691
tp692
Rp693
ag3
(g7
S'\x00\x00\x00@i\xec\xf8?'
p694
tp695
Rp696
ag3
(g7
S'\x00\x00\x00\xa0\xe4\x12\x1d@'
p697
tp698
Rp699
ag3
(g7
S'\x00\x00\x00\xc0N:\xfe?'
p700
tp701
Rp702
ag3
(g7
S'\x00\x00\x00@\xae\x84\x0e@'
p703
tp704
Rp705
ag3
(g7
S'\x00\x00\x00 \x87\xbe\x08@'
p706
tp707
Rp708
ag3
(g7
S'\x00\x00\x00\x00\x8e\x82\xfa?'
p709
tp710
Rp711
ag3
(g7
S'\x00\x00\x00`")\x05@'
p712
tp713
Rp714
ag3
(g7
S'\x00\x00\x00\x00\xab\xf1\x01@'
p715
tp716
Rp717
ag3
(g7
S'\x00\x00\x00`Z\xb4\xf7?'
p718
tp719
Rp720
ag3
(g7
S'\x00\x00\x00\xc0\x0f0\xdd?'
p721
tp722
Rp723
ag3
(g7
S'\x00\x00\x00\xc0\x13\xd2\x1a@'
p724
tp725
Rp726
ag3
(g7
S'\x00\x00\x00\xc0\xba\xbb\x03@'
p727
tp728
Rp729
ag3
(g7
S'\x00\x00\x00@\xf0\xf2\x02@'
p730
tp731
Rp732
ag3
(g7
S'\x00\x00\x00 4\x08\x03@'
p733
tp734
Rp735
ag3
(g7
S'\x00\x00\x00\xc0\xeb?\x08@'
p736
tp737
Rp738
ag3
(g7
S'\x00\x00\x00@|\r\x00@'
p739
tp740
Rp741
ag3
(g7
S'\x00\x00\x00\x00Y=\x0b@'
p742
tp743
Rp744
ag3
(g7
S'\x00\x00\x00@;\x05\xe1?'
p745
tp746
Rp747
ag3
(g7
S'\x00\x00\x00\x80\n)\x10@'
p748
tp749
Rp750
ag3
(g7
S'\x00\x00\x00@\x82\x0b\xe3?'
p751
tp752
Rp753
ag3
(g7
S'\x00\x00\x00\x00w\r\x1e@'
p754
tp755
Rp756
ag3
(g7
S'\x00\x00\x00\xe0\xe3\xed\xff?'
p757
tp758
Rp759
ag3
(g7
S'\x00\x00\x00\xa0\xff\xd9\x02@'
p760
tp761
Rp762
ag3
(g7
S'\x00\x00\x00\xc0\x89\x82\x10@'
p763
tp764
Rp765
ag3
(g7
S'\x00\x00\x00`C\xa4\xe3?'
p766
tp767
Rp768
ag3
(g7
S'\x00\x00\x00`\xc25\x17@'
p769
tp770
Rp771
ag3
(g7
S'\x00\x00\x00\xe0\xbe\x96\x08@'
p772
tp773
Rp774
ag3
(g7
S'\x00\x00\x00\x80<\x90\x00@'
p775
tp776
Rp777
ag3
(g7
S'\x00\x00\x00\xe01\xd9\x0b@'
p778
tp779
Rp780
ag3
(g7
S'\x00\x00\x00 \xf5J\x03@'
p781
tp782
Rp783
ag3
(g7
S'\x00\x00\x00 A\xd3\xfb?'
p784
tp785
Rp786
ag3
(g7
S'\x00\x00\x00\xa0y\xae\x04@'
p787
tp788
Rp789
ag3
(g7
S'\x00\x00\x00\xc0bH\x00@'
p790
tp791
Rp792
ag3
(g7
S'\x00\x00\x00\x80\xe5k\x05@'
p793
tp794
Rp795
ag3
(g7
S'\x00\x00\x00\xe0h\x0c\xf4?'
p796
tp797
Rp798
ag3
(g7
S'\x00\x00\x00 \xbc\xd2\x15@'
p799
tp800
Rp801
ag3
(g7
S'\x00\x00\x00\x00p$\xdb?'
p802
tp803
Rp804
ag3
(g7
S'\x00\x00\x00\xe0w\xc9\x04@'
p805
tp806
Rp807
ag3
(g7
S'\x00\x00\x00@\xb3?\x12@'
p808
tp809
Rp810
ag3
(g7
S'\x00\x00\x00\xe0\x87\x96\x04@'
p811
tp812
Rp813
ag3
(g7
S'\x00\x00\x00`u_\x07@'
p814
tp815
Rp816
ag3
(g7
S'\x00\x00\x00`\xae3\x01@'
p817
tp818
Rp819
ag3
(g7
S'\x00\x00\x00\x00\x92T\xf3?'
p820
tp821
Rp822
ag3
(g7
S'\x00\x00\x00`\x1a\xd9\x0c@'
p823
tp824
Rp825
ag3
(g7
S'\x00\x00\x00 J\x10\xf8?'
p826
tp827
Rp828
ag3
(g7
S'\x00\x00\x00\x80\xc3\xf7\x15@'
p829
tp830
Rp831
ag3
(g7
S'\x00\x00\x00\xc0\xa4\x91\xe1?'
p832
tp833
Rp834
ag3
(g7
S'\x00\x00\x00`[\xf5\x16@'
p835
tp836
Rp837
ag3
(g7
S'\x00\x00\x00@\x8av\x10@'
p838
tp839
Rp840
ag3
(g7
S'\x00\x00\x00\x80F\xb8\xfe?'
p841
tp842
Rp843
ag3
(g7
S'\x00\x00\x00\x80\xaa\xd6\t@'
p844
tp845
Rp846
ag3
(g7
S'\x00\x00\x00\x80\xecr\xf7?'
p847
tp848
Rp849
ag3
(g7
S'\x00\x00\x00\xa0\x00t\x04@'
p850
tp851
Rp852
ag3
(g7
S'\x00\x00\x00\xc0\xa1\x88\x10@'
p853
tp854
Rp855
ag3
(g7
S'\x00\x00\x00\x00%\x0f\xe0?'
p856
tp857
Rp858
ag3
(g7
S'\x00\x00\x00\x00k\x91\x1c@'
p859
tp860
Rp861
ag3
(g7
S'\x00\x00\x00\x00\xe9\xff\xfb?'
p862
tp863
Rp864
ag3
(g7
S'\x00\x00\x00\xc0\xda\xcb\x16@'
p865
tp866
Rp867
ag3
(g7
S'\x00\x00\x00\xe0E\x1e\t@'
p868
tp869
Rp870
ag3
(g7
S'\x00\x00\x00\x804\xbc\xfc?'
p871
tp872
Rp873
ag3
(g7
S'\x00\x00\x00@\xe2\xb2\x05@'
p874
tp875
Rp876
ag3
(g7
S'\x00\x00\x00\xa0\x87Z\xe9?'
p877
tp878
Rp879
ag3
(g7
S'\x00\x00\x00`\xe2\xfd\x10@'
p880
tp881
Rp882
ag3
(g7
S'\x00\x00\x00\x00\xd7x\xef?'
p883
tp884
Rp885
ag3
(g7
S'\x00\x00\x00\x808\xa1\xf6?'
p886
tp887
Rp888
ag3
(g7
S'\x00\x00\x00\xc0\x04M\x12@'
p889
tp890
Rp891
ag3
(g7
S'\x00\x00\x00\x80\xeb1\xf6?'
p892
tp893
Rp894
ag3
(g7
S'\x00\x00\x00 \xacJ\x03@'
p895
tp896
Rp897
ag3
(g7
S'\x00\x00\x00\x00\x18\x06\x05@'
p898
tp899
Rp900
ag3
(g7
S'\x00\x00\x00\xc0/\xa2\x02@'
p901
tp902
Rp903
ag3
(g7
S'\x00\x00\x00@\xd9f\x05@'
p904
tp905
Rp906
ag3
(g7
S'\x00\x00\x00\xe0\xe4G\xfc?'
p907
tp908
Rp909
ag3
(g7
S'\x00\x00\x00\xc0U\xc4\xf6?'
p910
tp911
Rp912
ag3
(g7
S'\x00\x00\x00\x00\xfb\x80\x11@'
p913
tp914
Rp915
ag3
(g7
S'\x00\x00\x00 \xefi\xe5?'
p916
tp917
Rp918
ag3
(g7
S'\x00\x00\x00\xa0\xaf\xae\x12@'
p919
tp920
Rp921
ag3
(g7
S'\x00\x00\x00\x80\xe8\x19\xf0?'
p922
tp923
Rp924
ag3
(g7
S'\x00\x00\x00\x00\x98E\x1b@'
p925
tp926
Rp927
ag3
(g7
S'\x00\x00\x00\xc0G\x8c\xf4?'
p928
tp929
Rp930
ag3
(g7
S'\x00\x00\x00@\x95\xac\x15@'
p931
tp932
Rp933
ag3
(g7
S'\x00\x00\x00`R\xc7\x08@'
p934
tp935
Rp936
ag3
(g7
S'\x00\x00\x00\x807\xa7\xf6?'
p937
tp938
Rp939
ag3
(g7
S'\x00\x00\x00@P`\x01@'
p940
tp941
Rp942
ag3
(g7
S'\x00\x00\x00`md\t@'
p943
tp944
Rp945
ag3
(g7
S'\x00\x00\x00`\x8f\xaf\xf2?'
p946
tp947
Rp948
ag3
(g7
S'\x00\x00\x00\x00\x01\xe0\x12@'
p949
tp950
Rp951
ag3
(g7
S'\x00\x00\x00\xc0%S\xea?'
p952
tp953
Rp954
ag3
(g7
S'\x00\x00\x00\x80\xb3\xff\x16@'
p955
tp956
Rp957
ag3
(g7
S'\x00\x00\x00@\x83\x90\xf4?'
p958
tp959
Rp960
ag3
(g7
S'\x00\x00\x00\x80.\x8d\x15@'
p961
tp962
Rp963
ag3
(g7
S'\x00\x00\x00\xa0\xd9\x87\xf3?'
p964
tp965
Rp966
ag3
(g7
S'\x00\x00\x00\x00\xdd\xdf\x15@'
p967
tp968
Rp969
ag3
(g7
S'\x00\x00\x00`\xb1\x1b\xff?'
p970
tp971
Rp972
ag3
(g7
S'\x00\x00\x00`\xe8\xdd\x07@'
p973
tp974
Rp975
ag3
(g7
S'\x00\x00\x00\xc0S\xd5\x0e@'
p976
tp977
Rp978
ag3
(g7
S'\x00\x00\x00 \xc1%\xf2?'
p979
tp980
Rp981
ag3
(g7
S'\x00\x00\x00 \xf5i\x06@'
p982
tp983
Rp984
ag3
(g7
S'\x00\x00\x00`s$\x0c@'
p985
tp986
Rp987
ag3
(g7
S'\x00\x00\x00\xa0\xc8\xd6\xea?'
p988
tp989
Rp990
ag3
(g7
S'\x00\x00\x00\xa0u\xaf\x12@'
p991
tp992
Rp993
ag3
(g7
S'\x00\x00\x00\x00\xb8\x19\xf7?'
p994
tp995
Rp996
ag3
(g7
S'\x00\x00\x00`\x1eG\x16@'
p997
tp998
Rp999
ag3
(g7
S'\x00\x00\x00@\x99\xa6\xef?'
p1000
tp1001
Rp1002
ag3
(g7
S'\x00\x00\x00\xa0\xd4\xf6\x19@'
p1003
tp1004
Rp1005
ag3
(g7
S'\x00\x00\x00\xc0\x94\xb2\xff?'
p1006
tp1007
Rp1008
ag3
(g7
S'\x00\x00\x00\x80K\xdd\xff?'
p1009
tp1010
Rp1011
ag3
(g7
S'\x00\x00\x00\x00\xc8A\x08@'
p1012
tp1013
Rp1014
ag3
(g7
S'\x00\x00\x00\xe0a(\xf9?'
p1015
tp1016
Rp1017
ag3
(g7
S'\x00\x00\x00@d\xdb\n@'
p1018
tp1019
Rp1020
ag3
(g7
S'\x00\x00\x00@\xe8x\xdf?'
p1021
tp1022
Rp1023
ag3
(g7
S'\x00\x00\x00`\xb2\xdd\x18@'
p1024
tp1025
Rp1026
ag3
(g7
S'\x00\x00\x00\x00-\xe8\xf9?'
p1027
tp1028
Rp1029
ag3
(g7
S'\x00\x00\x00\xe0TT\x12@'
p1030
tp1031
Rp1032
ag3
(g7
S'\x00\x00\x00\xa0[\xf3\x04@'
p1033
tp1034
Rp1035
ag3
(g7
S'\x00\x00\x00@,\xde\x02@'
p1036
tp1037
Rp1038
ag3
(g7
S'\x00\x00\x00\xa0\xe2e\xf8?'
p1039
tp1040
Rp1041
ag3
(g7
S'\x00\x00\x00\xc0U\xc6\x00@'
p1042
tp1043
Rp1044
ag3
(g7
S'\x00\x00\x00\x80n\x1e\t@'
p1045
tp1046
Rp1047
ag3
(g7
S'\x00\x00\x00\xc0\xcf9\xfb?'
p1048
tp1049
Rp1050
ag3
(g7
S'\x00\x00\x00\xa0\x84\xdb\xff?'
p1051
tp1052
Rp1053
ag3
(g7
S'\x00\x00\x00@\xe2\x03\xfa?'
p1054
tp1055
Rp1056
ag3
(g7
S'\x00\x00\x00\xa0\x08\x0b\xfe?'
p1057
tp1058
Rp1059
ag3
(g7
S'\x00\x00\x00 \xe2\xde\x00@'
p1060
tp1061
Rp1062
ag3
(g7
S'\x00\x00\x00\xa0\xaaX\xfb?'
p1063
tp1064
Rp1065
ag3
(g7
S'\x00\x00\x00@\x02\xc7\x04@'
p1066
tp1067
Rp1068
ag3
(g7
S'\x00\x00\x00\x80\xadD\x00@'
p1069
tp1070
Rp1071
ag3
(g7
S'\x00\x00\x00\x80kz\xf2?'
p1072
tp1073
Rp1074
ag3
(g7
S'\x00\x00\x00\xa0$<\x07@'
p1075
tp1076
Rp1077
ag3
(g7
S'\x00\x00\x00\xc0\xcdK\xff?'
p1078
tp1079
Rp1080
ag3
(g7
S'\x00\x00\x00\xc0e\x1c\xf7?'
p1081
tp1082
Rp1083
ag3
(g7
S'\x00\x00\x00@/\x9b\xf9?'
p1084
tp1085
Rp1086
ag3
(g7
S'\x00\x00\x00@i\xf6\xf9?'
p1087
tp1088
Rp1089
ag3
(g7
S'\x00\x00\x00\xa0\xf9\xad\x05@'
p1090
tp1091
Rp1092
ag3
(g7
S'\x00\x00\x00\x80x\xe6\xfa?'
p1093
tp1094
Rp1095
ag3
(g7
S'\x00\x00\x00@]\x14\x08@'
p1096
tp1097
Rp1098
ag3
(g7
S'\x00\x00\x00\xc0\xc7\xd6\xf5?'
p1099
tp1100
Rp1101
ag3
(g7
S'\x00\x00\x00\x00\x15\x19\x0c@'
p1102
tp1103
Rp1104
ag3
(g7
S'\x00\x00\x00 c\xcb\xff?'
p1105
tp1106
Rp1107
ag3
(g7
S'\x00\x00\x00 \xab\xc4\xda?'
p1108
tp1109
Rp1110
ag3
(g7
S'\x00\x00\x00 \x10\xee\x17@'
p1111
tp1112
Rp1113
ag3
(g7
S'\x00\x00\x00\x80\x7fD\x08@'
p1114
tp1115
Rp1116
ag3
(g7
S'\x00\x00\x00\xa0\xa9X\xf0?'
p1117
tp1118
Rp1119
ag3
(g7
S'\x00\x00\x00\xc0:?\x16@'
p1120
tp1121
Rp1122
ag3
(g7
S'\x00\x00\x00\xc0\x15\xd5\xe1?'
p1123
tp1124
Rp1125
ag3
(g7
S'\x00\x00\x00`K\xb5#@'
p1126
tp1127
Rp1128
ag3
(g7
S'\x00\x00\x00\x80:\xf5\xf5?'
p1129
tp1130
Rp1131
ag3
(g7
S'\x00\x00\x00@\xc0\xf7\x05@'
p1132
tp1133
Rp1134
ag3
(g7
S'\x00\x00\x00`a\xae\x10@'
p1135
tp1136
Rp1137
ag3
(g7
S'\x00\x00\x00\xc0uj\xf3?'
p1138
tp1139
Rp1140
ag3
(g7
S'\x00\x00\x00`\x1f\xf2\t@'
p1141
tp1142
Rp1143
ag3
(g7
S'\x00\x00\x00\x80\xad\x86\x00@'
p1144
tp1145
Rp1146
ag3
(g7
S'\x00\x00\x00\xa0\xf1\xea\xfd?'
p1147
tp1148
Rp1149
ag3
(g7
S'\x00\x00\x00`\xe5\x87\t@'
p1150
tp1151
Rp1152
ag3
(g7
S'\x00\x00\x00\xc0\x17?\xe8?'
p1153
tp1154
Rp1155
ag3
(g7
S'\x00\x00\x00`Gk\x1c@'
p1156
tp1157
Rp1158
ag3
(g7
S'\x00\x00\x00@\x92\xbc\x02@'
p1159
tp1160
Rp1161
ag3
(g7
S'\x00\x00\x00\x00\xc6\x11\x0e@'
p1162
tp1163
Rp1164
ag3
(g7
S'\x00\x00\x00`\xb2\xa1\r@'
p1165
tp1166
Rp1167
ag3
(g7
S'\x00\x00\x00\xc0I\xb3\xe9?'
p1168
tp1169
Rp1170
ag3
(g7
S'\x00\x00\x00 \\E\r@'
p1171
tp1172
Rp1173
ag3
(g7
S'\x00\x00\x00\xa0\xfc:\t@'
p1174
tp1175
Rp1176
ag3
(g7
S'\x00\x00\x00`\xc8X\xf9?'
p1177
tp1178
Rp1179
ag3
(g7
S'\x00\x00\x00\xc0\x98(\x06@'
p1180
tp1181
Rp1182
ag3
(g7
S'\x00\x00\x00\x80\xb7V\x0c@'
p1183
tp1184
Rp1185
ag3
(g7
S'\x00\x00\x00\xc0\xf7\x04\xe8?'
p1186
tp1187
Rp1188
ag3
(g7
S'\x00\x00\x00\x002\xab\xfe?'
p1189
tp1190
Rp1191
ag3
(g7
S"\x00\x00\x00\x00'$\x04@"
p1192
tp1193
Rp1194
ag3
(g7
S'\x00\x00\x00\xc0o\x02\xf4?'
p1195
tp1196
Rp1197
ag3
(g7
S'\x00\x00\x00`\xbeq\x14@'
p1198
tp1199
Rp1200
ag3
(g7
S'\x00\x00\x00`\xba\x82\xee?'
p1201
tp1202
Rp1203
ag3
(g7
S'\x00\x00\x00@\xbfp\x17@'
p1204
tp1205
Rp1206
ag3
(g7
S'\x00\x00\x00 Ym\xeb?'
p1207
tp1208
Rp1209
asS'train_accuracy'
p1210
(lp1211
(lp1212
g3
(g4
(S'f4'
p1213
I0
I1
tp1214
Rp1215
(I3
S'<'
p1216
NNNI-1
I-1
I0
tp1217
bS'\x00\x00\x00\x00'
p1218
tp1219
Rp1220
ag3
(g1215
S'\x00\x00\x00?'
p1221
tp1222
Rp1223
aa(lp1224
g3
(g1215
S'\x00\x00\x00\x00'
p1225
tp1226
Rp1227
ag3
(g1215
S'\x00\x00\x00?'
p1228
tp1229
Rp1230
aa(lp1231
g3
(g1215
S'\x00\x00\x00\x00'
p1232
tp1233
Rp1234
ag3
(g1215
S'\x00\x00\x80?'
p1235
tp1236
Rp1237
aa(lp1238
g3
(g1215
S'\x00\x00\x00\x00'
p1239
tp1240
Rp1241
ag3
(g1215
S'\x00\x00@?'
p1242
tp1243
Rp1244
aa(lp1245
g3
(g1215
S'\x00\x00\x00\x00'
p1246
tp1247
Rp1248
ag3
(g1215
S'\x00\x00\x80?'
p1249
tp1250
Rp1251
aa(lp1252
g3
(g1215
S'\x00\x00\x00\x00'
p1253
tp1254
Rp1255
ag3
(g1215
S'\x00\x00p?'
p1256
tp1257
Rp1258
aa(lp1259
g3
(g1215
S'\x00\x00\x00\x00'
p1260
tp1261
Rp1262
ag3
(g1215
S'\x00\x00\x80?'
p1263
tp1264
Rp1265
aa(lp1266
g3
(g1215
S'\x00\x00\x00\x00'
p1267
tp1268
Rp1269
ag3
(g1215
S'\x00\x00\x80?'
p1270
tp1271
Rp1272
aa(lp1273
g3
(g1215
S'\x00\x00\x00\x00'
p1274
tp1275
Rp1276
ag3
(g1215
S'\x00\x00@?'
p1277
tp1278
Rp1279
aa(lp1280
g3
(g1215
S'\x00\x00\x00\x00'
p1281
tp1282
Rp1283
ag3
(g1215
S'\x00\x00\x80?'
p1284
tp1285
Rp1286
aa(lp1287
g3
(g1215
S'\x00\x00\x00\x00'
p1288
tp1289
Rp1290
ag3
(g1215
S'\x00\x00\x80?'
p1291
tp1292
Rp1293
aa(lp1294
g3
(g1215
S'\x00\x00\x00\x00'
p1295
tp1296
Rp1297
ag3
(g1215
S'\x00\x00\x80?'
p1298
tp1299
Rp1300
aa(lp1301
g3
(g1215
S'\x00\x00\x00\x00'
p1302
tp1303
Rp1304
ag3
(g1215
S'\x00\x00\x80?'
p1305
tp1306
Rp1307
aa(lp1308
g3
(g1215
S'\x00\x00\x00\x00'
p1309
tp1310
Rp1311
ag3
(g1215
S'\x00\x00\x80?'
p1312
tp1313
Rp1314
aa(lp1315
g3
(g1215
S'\x00\x00\x00\x00'
p1316
tp1317
Rp1318
ag3
(g1215
S'\x00\x00\x80?'
p1319
tp1320
Rp1321
aa(lp1322
g3
(g1215
S'\x00\x00\x00\x00'
p1323
tp1324
Rp1325
ag3
(g1215
S'\x00\x00\x80?'
p1326
tp1327
Rp1328
aa(lp1329
g3
(g1215
S'\x00\x00\x00\x00'
p1330
tp1331
Rp1332
ag3
(g1215
S'\x00\x00\x80?'
p1333
tp1334
Rp1335
aa(lp1336
g3
(g1215
S'\x00\x00\x00\x00'
p1337
tp1338
Rp1339
ag3
(g1215
S'\x00\x00p?'
p1340
tp1341
Rp1342
aa(lp1343
g3
(g1215
S'\x00\x00\x00\x00'
p1344
tp1345
Rp1346
ag3
(g1215
S'\x00\x00P?'
p1347
tp1348
Rp1349
aa(lp1350
g3
(g1215
S'\x00\x00\x00\x00'
p1351
tp1352
Rp1353
ag3
(g1215
S'\x00\x00\x80?'
p1354
tp1355
Rp1356
aa(lp1357
g3
(g1215
S'\x00\x00\x00\x00'
p1358
tp1359
Rp1360
ag3
(g1215
S'\x00\x00@?'
p1361
tp1362
Rp1363
aa(lp1364
g3
(g1215
S'\x00\x00\x00\x00'
p1365
tp1366
Rp1367
ag3
(g1215
S'\x00\x00\x80?'
p1368
tp1369
Rp1370
aa(lp1371
g3
(g1215
S'\x00\x00\x00\x00'
p1372
tp1373
Rp1374
ag3
(g1215
S'\x00\x00\x80?'
p1375
tp1376
Rp1377
aa(lp1378
g3
(g1215
S'\x00\x00\x00\x00'
p1379
tp1380
Rp1381
ag3
(g1215
S'\x00\x00p?'
p1382
tp1383
Rp1384
aa(lp1385
g3
(g1215
S'\x00\x00\x00\x00'
p1386
tp1387
Rp1388
ag3
(g1215
S'\x00\x00\x80?'
p1389
tp1390
Rp1391
aa(lp1392
g3
(g1215
S'\x00\x00\x00>'
p1393
tp1394
Rp1395
ag3
(g1215
S'\x00\x00\x80?'
p1396
tp1397
Rp1398
aa(lp1399
g3
(g1215
S'\x00\x00\x00\x00'
p1400
tp1401
Rp1402
ag3
(g1215
S'\x00\x00p?'
p1403
tp1404
Rp1405
aa(lp1406
g3
(g1215
S'\x00\x00\x00\x00'
p1407
tp1408
Rp1409
ag3
(g1215
S'\x00\x00\x80?'
p1410
tp1411
Rp1412
aa(lp1413
g3
(g1215
S'\x00\x00\x00\x00'
p1414
tp1415
Rp1416
ag3
(g1215
S'\x00\x00\x80?'
p1417
tp1418
Rp1419
aa(lp1420
g3
(g1215
S'\x00\x00\x00\x00'
p1421
tp1422
Rp1423
ag3
(g1215
S'\x00\x00\x80?'
p1424
tp1425
Rp1426
aa(lp1427
g3
(g1215
S'\x00\x00\x00\x00'
p1428
tp1429
Rp1430
ag3
(g1215
S'\x00\x00p?'
p1431
tp1432
Rp1433
aa(lp1434
g3
(g1215
S'\x00\x00\x00\x00'
p1435
tp1436
Rp1437
ag3
(g1215
S'\x00\x00\x80?'
p1438
tp1439
Rp1440
aa(lp1441
g3
(g1215
S'\x00\x00\x00\x00'
p1442
tp1443
Rp1444
ag3
(g1215
S'\x00\x00\x80?'
p1445
tp1446
Rp1447
aa(lp1448
g3
(g1215
S'\x00\x00\x00>'
p1449
tp1450
Rp1451
ag3
(g1215
S'\x00\x00\x80?'
p1452
tp1453
Rp1454
aa(lp1455
g3
(g1215
S'\x00\x00\x00>'
p1456
tp1457
Rp1458
ag3
(g1215
S'\x00\x00\x80?'
p1459
tp1460
Rp1461
aa(lp1462
g3
(g1215
S'\x00\x00\x00\x00'
p1463
tp1464
Rp1465
ag3
(g1215
S'\x00\x00@?'
p1466
tp1467
Rp1468
aa(lp1469
g3
(g1215
S'\x00\x00\x00\x00'
p1470
tp1471
Rp1472
ag3
(g1215
S'\x00\x00\x00?'
p1473
tp1474
Rp1475
aa(lp1476
g3
(g1215
S'\x00\x00\x00\x00'
p1477
tp1478
Rp1479
ag3
(g1215
S'\x00\x00\x80?'
p1480
tp1481
Rp1482
aa(lp1483
g3
(g1215
S'\x00\x00\x00>'
p1484
tp1485
Rp1486
ag3
(g1215
S'\x00\x00\x80?'
p1487
tp1488
Rp1489
aa(lp1490
g3
(g1215
S'\x00\x00\x00\x00'
p1491
tp1492
Rp1493
ag3
(g1215
S'\x00\x000?'
p1494
tp1495
Rp1496
aa(lp1497
g3
(g1215
S'\x00\x00\x00\x00'
p1498
tp1499
Rp1500
ag3
(g1215
S'\x00\x00\x80?'
p1501
tp1502
Rp1503
aa(lp1504
g3
(g1215
S'\x00\x00\x00\x00'
p1505
tp1506
Rp1507
ag3
(g1215
S'\x00\x00\x80?'
p1508
tp1509
Rp1510
aa(lp1511
g3
(g1215
S'\x00\x00\x00\x00'
p1512
tp1513
Rp1514
ag3
(g1215
S'\x00\x00\x80?'
p1515
tp1516
Rp1517
aa(lp1518
g3
(g1215
S'\x00\x00\x00\x00'
p1519
tp1520
Rp1521
ag3
(g1215
S'\x00\x00\x80?'
p1522
tp1523
Rp1524
aa(lp1525
g3
(g1215
S'\x00\x00\x00\x00'
p1526
tp1527
Rp1528
ag3
(g1215
S'\x00\x00`?'
p1529
tp1530
Rp1531
aa(lp1532
g3
(g1215
S'\x00\x00\x00\x00'
p1533
tp1534
Rp1535
ag3
(g1215
S'\x00\x00\x80?'
p1536
tp1537
Rp1538
aa(lp1539
g3
(g1215
S'\x00\x00\x00\x00'
p1540
tp1541
Rp1542
ag3
(g1215
S'\x00\x00p?'
p1543
tp1544
Rp1545
aa(lp1546
g3
(g1215
S'\x00\x00\x00\x00'
p1547
tp1548
Rp1549
ag3
(g1215
S'\x00\x00\x80?'
p1550
tp1551
Rp1552
aa(lp1553
g3
(g1215
S'\x00\x00\x00\x00'
p1554
tp1555
Rp1556
ag3
(g1215
S'\x00\x00\x80?'
p1557
tp1558
Rp1559
aa(lp1560
g3
(g1215
S'\x00\x00\x00\x00'
p1561
tp1562
Rp1563
ag3
(g1215
S'\x00\x00P?'
p1564
tp1565
Rp1566
aa(lp1567
g3
(g1215
S'\x00\x00\x00\x00'
p1568
tp1569
Rp1570
ag3
(g1215
S'\x00\x00@?'
p1571
tp1572
Rp1573
aa(lp1574
g3
(g1215
S'\x00\x00\x00\x00'
p1575
tp1576
Rp1577
ag3
(g1215
S'\x00\x00\x80?'
p1578
tp1579
Rp1580
aa(lp1581
g3
(g1215
S'\x00\x00\x00\x00'
p1582
tp1583
Rp1584
ag3
(g1215
S'\x00\x00\x80?'
p1585
tp1586
Rp1587
aa(lp1588
g3
(g1215
S'\x00\x00\x00\x00'
p1589
tp1590
Rp1591
ag3
(g1215
S'\x00\x00P?'
p1592
tp1593
Rp1594
aa(lp1595
g3
(g1215
S'\x00\x00\x00\x00'
p1596
tp1597
Rp1598
ag3
(g1215
S'\x00\x00\x80?'
p1599
tp1600
Rp1601
aa(lp1602
g3
(g1215
S'\x00\x00\x00\x00'
p1603
tp1604
Rp1605
ag3
(g1215
S'\x00\x00\x80?'
p1606
tp1607
Rp1608
aa(lp1609
g3
(g1215
S'\x00\x00\x80>'
p1610
tp1611
Rp1612
ag3
(g1215
S'\x00\x00`?'
p1613
tp1614
Rp1615
aa(lp1616
g3
(g1215
S'\x00\x00\x00\x00'
p1617
tp1618
Rp1619
ag3
(g1215
S'\x00\x00P?'
p1620
tp1621
Rp1622
aa(lp1623
g3
(g1215
S'\x00\x00\x00\x00'
p1624
tp1625
Rp1626
ag3
(g1215
S'\x00\x00@?'
p1627
tp1628
Rp1629
aa(lp1630
g3
(g1215
S'\x00\x00\x00\x00'
p1631
tp1632
Rp1633
ag3
(g1215
S'\x00\x00`?'
p1634
tp1635
Rp1636
aa(lp1637
g3
(g1215
S'\x00\x00\x00\x00'
p1638
tp1639
Rp1640
ag3
(g1215
S'\x00\x00\x80?'
p1641
tp1642
Rp1643
aa(lp1644
g3
(g1215
S'\x00\x00\x00>'
p1645
tp1646
Rp1647
ag3
(g1215
S'\x00\x00`?'
p1648
tp1649
Rp1650
aa(lp1651
g3
(g1215
S'\x00\x00\x00\x00'
p1652
tp1653
Rp1654
ag3
(g1215
S'\x00\x00@?'
p1655
tp1656
Rp1657
aa(lp1658
g3
(g1215
S'\x00\x00\x00\x00'
p1659
tp1660
Rp1661
ag3
(g1215
S'\x00\x00\x80?'
p1662
tp1663
Rp1664
aa(lp1665
g3
(g1215
S'\x00\x00\x00?'
p1666
tp1667
Rp1668
ag3
(g1215
S'\x00\x00P?'
p1669
tp1670
Rp1671
aa(lp1672
g3
(g1215
S'\x00\x00\x00\x00'
p1673
tp1674
Rp1675
ag3
(g1215
S'\x00\x000?'
p1676
tp1677
Rp1678
aa(lp1679
g3
(g1215
S'\x00\x00\x00>'
p1680
tp1681
Rp1682
ag3
(g1215
S'\x00\x00P?'
p1683
tp1684
Rp1685
aa(lp1686
g3
(g1215
S'\x00\x00\x00\x00'
p1687
tp1688
Rp1689
ag3
(g1215
S'\x00\x00P?'
p1690
tp1691
Rp1692
aa(lp1693
g3
(g1215
S'\x00\x00\x00\x00'
p1694
tp1695
Rp1696
ag3
(g1215
S'\x00\x00`?'
p1697
tp1698
Rp1699
aa(lp1700
g3
(g1215
S'\x00\x00\x00\x00'
p1701
tp1702
Rp1703
ag3
(g1215
S'\x00\x00p?'
p1704
tp1705
Rp1706
aa(lp1707
g3
(g1215
S'\x00\x00\x80>'
p1708
tp1709
Rp1710
ag3
(g1215
S'\x00\x00\x80?'
p1711
tp1712
Rp1713
aa(lp1714
g3
(g1215
S'\x00\x00\x00\x00'
p1715
tp1716
Rp1717
ag3
(g1215
S'\x00\x00@?'
p1718
tp1719
Rp1720
aa(lp1721
g3
(g1215
S'\x00\x00\x00?'
p1722
tp1723
Rp1724
ag3
(g1215
S'\x00\x00\x00?'
p1725
tp1726
Rp1727
aa(lp1728
g3
(g1215
S'\x00\x00\x00\x00'
p1729
tp1730
Rp1731
ag3
(g1215
S'\x00\x00 ?'
p1732
tp1733
Rp1734
aa(lp1735
g3
(g1215
S'\x00\x00\x00\x00'
p1736
tp1737
Rp1738
ag3
(g1215
S'\x00\x00`?'
p1739
tp1740
Rp1741
aa(lp1742
g3
(g1215
S'\x00\x00\x00\x00'
p1743
tp1744
Rp1745
ag3
(g1215
S'\x00\x00@?'
p1746
tp1747
Rp1748
aa(lp1749
g3
(g1215
S'\x00\x00\x00\x00'
p1750
tp1751
Rp1752
ag3
(g1215
S'\x00\x00\x80?'
p1753
tp1754
Rp1755
aa(lp1756
g3
(g1215
S'\x00\x00\x00\x00'
p1757
tp1758
Rp1759
ag3
(g1215
S'\x00\x00P?'
p1760
tp1761
Rp1762
aa(lp1763
g3
(g1215
S'\x00\x00\x00\x00'
p1764
tp1765
Rp1766
ag3
(g1215
S'\x00\x000?'
p1767
tp1768
Rp1769
aa(lp1770
g3
(g1215
S'\x00\x00\x80>'
p1771
tp1772
Rp1773
ag3
(g1215
S'\x00\x00\x00?'
p1774
tp1775
Rp1776
aa(lp1777
g3
(g1215
S'\x00\x00\x00\x00'
p1778
tp1779
Rp1780
ag3
(g1215
S'\x00\x000?'
p1781
tp1782
Rp1783
aa(lp1784
g3
(g1215
S'\x00\x00\x00\x00'
p1785
tp1786
Rp1787
ag3
(g1215
S'\x00\x00\x80?'
p1788
tp1789
Rp1790
aa(lp1791
g3
(g1215
S'\x00\x00\x00\x00'
p1792
tp1793
Rp1794
ag3
(g1215
S'\x00\x00\x80?'
p1795
tp1796
Rp1797
aa(lp1798
g3
(g1215
S'\x00\x00\x00\x00'
p1799
tp1800
Rp1801
ag3
(g1215
S'\x00\x00`?'
p1802
tp1803
Rp1804
aa(lp1805
g3
(g1215
S'\x00\x00\x00\x00'
p1806
tp1807
Rp1808
ag3
(g1215
S'\x00\x00\x80?'
p1809
tp1810
Rp1811
aa(lp1812
g3
(g1215
S'\x00\x00 ?'
p1813
tp1814
Rp1815
ag3
(g1215
S'\x00\x00`?'
p1816
tp1817
Rp1818
aa(lp1819
g3
(g1215
S'\x00\x00\x00\x00'
p1820
tp1821
Rp1822
ag3
(g1215
S'\x00\x00\x00?'
p1823
tp1824
Rp1825
aa(lp1826
g3
(g1215
S'\x00\x00\x00\x00'
p1827
tp1828
Rp1829
ag3
(g1215
S'\x00\x00\x00?'
p1830
tp1831
Rp1832
aa(lp1833
g3
(g1215
S'\x00\x00\x00>'
p1834
tp1835
Rp1836
ag3
(g1215
S'\x00\x00\x80?'
p1837
tp1838
Rp1839
aa(lp1840
g3
(g1215
S'\x00\x00\x00\x00'
p1841
tp1842
Rp1843
ag3
(g1215
S'\x00\x00`?'
p1844
tp1845
Rp1846
aa(lp1847
g3
(g1215
S'\x00\x00@?'
p1848
tp1849
Rp1850
ag3
(g1215
S'\x00\x00@?'
p1851
tp1852
Rp1853
aa(lp1854
g3
(g1215
S'\x00\x00\x00\x00'
p1855
tp1856
Rp1857
ag3
(g1215
S'\x00\x00\x00?'
p1858
tp1859
Rp1860
aa(lp1861
g3
(g1215
S'\x00\x00\x00\x00'
p1862
tp1863
Rp1864
ag3
(g1215
S'\x00\x00\x00?'
p1865
tp1866
Rp1867
aa(lp1868
g3
(g1215
S'\x00\x00\x00\x00'
p1869
tp1870
Rp1871
ag3
(g1215
S'\x00\x00@?'
p1872
tp1873
Rp1874
aa(lp1875
g3
(g1215
S'\x00\x00\x00\x00'
p1876
tp1877
Rp1878
ag3
(g1215
S'\x00\x00`?'
p1879
tp1880
Rp1881
aa(lp1882
g3
(g1215
S'\x00\x00\x00\x00'
p1883
tp1884
Rp1885
ag3
(g1215
S'\x00\x00`?'
p1886
tp1887
Rp1888
aa(lp1889
g3
(g1215
S'\x00\x00\x00\x00'
p1890
tp1891
Rp1892
ag3
(g1215
S'\x00\x00\x80?'
p1893
tp1894
Rp1895
aa(lp1896
g3
(g1215
S'\x00\x00\x00\x00'
p1897
tp1898
Rp1899
ag3
(g1215
S'\x00\x00\x80?'
p1900
tp1901
Rp1902
aa(lp1903
g3
(g1215
S'\x00\x00\x00\x00'
p1904
tp1905
Rp1906
ag3
(g1215
S'\x00\x00P?'
p1907
tp1908
Rp1909
aa(lp1910
g3
(g1215
S'\x00\x00@?'
p1911
tp1912
Rp1913
ag3
(g1215
S'\x00\x00 ?'
p1914
tp1915
Rp1916
aa(lp1917
g3
(g1215
S'\x00\x00\xc0>'
p1918
tp1919
Rp1920
ag3
(g1215
S'\x00\x00p?'
p1921
tp1922
Rp1923
aa(lp1924
g3
(g1215
S'\x00\x00\x00\x00'
p1925
tp1926
Rp1927
ag3
(g1215
S'\x00\x00\x00?'
p1928
tp1929
Rp1930
aa(lp1931
g3
(g1215
S'\x00\x00\x00\x00'
p1932
tp1933
Rp1934
ag3
(g1215
S'\x00\x00\x00?'
p1935
tp1936
Rp1937
aa(lp1938
g3
(g1215
S'\x00\x00\x00?'
p1939
tp1940
Rp1941
ag3
(g1215
S'\x00\x00\x80?'
p1942
tp1943
Rp1944
aa(lp1945
g3
(g1215
S'\x00\x00\x00\x00'
p1946
tp1947
Rp1948
ag3
(g1215
S'\x00\x000?'
p1949
tp1950
Rp1951
aa(lp1952
g3
(g1215
S'\x00\x00\x00\x00'
p1953
tp1954
Rp1955
ag3
(g1215
S'\x00\x00P?'
p1956
tp1957
Rp1958
aa(lp1959
g3
(g1215
S'\x00\x00\x80>'
p1960
tp1961
Rp1962
ag3
(g1215
S'\x00\x00\x80?'
p1963
tp1964
Rp1965
aa(lp1966
g3
(g1215
S'\x00\x00\x00\x00'
p1967
tp1968
Rp1969
ag3
(g1215
S'\x00\x00`?'
p1970
tp1971
Rp1972
aa(lp1973
g3
(g1215
S'\x00\x00\x00\x00'
p1974
tp1975
Rp1976
ag3
(g1215
S'\x00\x00\x80?'
p1977
tp1978
Rp1979
aa(lp1980
g3
(g1215
S'\x00\x00\x00>'
p1981
tp1982
Rp1983
ag3
(g1215
S'\x00\x00\x80?'
p1984
tp1985
Rp1986
aa(lp1987
g3
(g1215
S'\x00\x00\x00\x00'
p1988
tp1989
Rp1990
ag3
(g1215
S'\x00\x00\x80?'
p1991
tp1992
Rp1993
aa(lp1994
g3
(g1215
S'\x00\x00\x00\x00'
p1995
tp1996
Rp1997
ag3
(g1215
S'\x00\x00P?'
p1998
tp1999
Rp2000
aa(lp2001
g3
(g1215
S'\x00\x00\x80>'
p2002
tp2003
Rp2004
ag3
(g1215
S'\x00\x00 ?'
p2005
tp2006
Rp2007
aa(lp2008
g3
(g1215
S'\x00\x00\x00\x00'
p2009
tp2010
Rp2011
ag3
(g1215
S'\x00\x00 ?'
p2012
tp2013
Rp2014
aa(lp2015
g3
(g1215
S'\x00\x00\x00>'
p2016
tp2017
Rp2018
ag3
(g1215
S'\x00\x00\x10?'
p2019
tp2020
Rp2021
aa(lp2022
g3
(g1215
S'\x00\x00\x00\x00'
p2023
tp2024
Rp2025
ag3
(g1215
S'\x00\x00p?'
p2026
tp2027
Rp2028
aa(lp2029
g3
(g1215
S'\x00\x00\x00\x00'
p2030
tp2031
Rp2032
ag3
(g1215
S'\x00\x00P?'
p2033
tp2034
Rp2035
aa(lp2036
g3
(g1215
S'\x00\x00\x00\x00'
p2037
tp2038
Rp2039
ag3
(g1215
S'\x00\x00@?'
p2040
tp2041
Rp2042
aa(lp2043
g3
(g1215
S'\x00\x00\x00>'
p2044
tp2045
Rp2046
ag3
(g1215
S'\x00\x00\x80?'
p2047
tp2048
Rp2049
aa(lp2050
g3
(g1215
S'\x00\x00\x00\x00'
p2051
tp2052
Rp2053
ag3
(g1215
S'\x00\x00 ?'
p2054
tp2055
Rp2056
aa(lp2057
g3
(g1215
S'\x00\x00\x00\x00'
p2058
tp2059
Rp2060
ag3
(g1215
S'\x00\x00\x00?'
p2061
tp2062
Rp2063
aa(lp2064
g3
(g1215
S'\x00\x00\x00?'
p2065
tp2066
Rp2067
ag3
(g1215
S'\x00\x00\x80?'
p2068
tp2069
Rp2070
aa(lp2071
g3
(g1215
S'\x00\x00\x00\x00'
p2072
tp2073
Rp2074
ag3
(g1215
S'\x00\x00\x10?'
p2075
tp2076
Rp2077
aa(lp2078
g3
(g1215
S'\x00\x00@?'
p2079
tp2080
Rp2081
ag3
(g1215
S'\x00\x00\x00?'
p2082
tp2083
Rp2084
aa(lp2085
g3
(g1215
S'\x00\x00\x00\x00'
p2086
tp2087
Rp2088
ag3
(g1215
S'\x00\x00@?'
p2089
tp2090
Rp2091
aa(lp2092
g3
(g1215
S'\x00\x00\x80?'
p2093
tp2094
Rp2095
ag3
(g1215
S'\x00\x00\x10?'
p2096
tp2097
Rp2098
aa(lp2099
g3
(g1215
S'\x00\x00\x00\x00'
p2100
tp2101
Rp2102
ag3
(g1215
S'\x00\x00\x10?'
p2103
tp2104
Rp2105
aa(lp2106
g3
(g1215
S'\x00\x00\x00\x00'
p2107
tp2108
Rp2109
ag3
(g1215
S'\x00\x00\x80?'
p2110
tp2111
Rp2112
aa(lp2113
g3
(g1215
S'\x00\x00@?'
p2114
tp2115
Rp2116
ag3
(g1215
S'\x00\x000?'
p2117
tp2118
Rp2119
aa(lp2120
g3
(g1215
S'\x00\x00\x00\x00'
p2121
tp2122
Rp2123
ag3
(g1215
S'\x00\x00\x00?'
p2124
tp2125
Rp2126
aa(lp2127
g3
(g1215
S'\x00\x00\x80?'
p2128
tp2129
Rp2130
ag3
(g1215
S'\x00\x00\x10?'
p2131
tp2132
Rp2133
aa(lp2134
g3
(g1215
S'\x00\x00\x00\x00'
p2135
tp2136
Rp2137
ag3
(g1215
S'\x00\x00P?'
p2138
tp2139
Rp2140
aa(lp2141
g3
(g1215
S'\x00\x00\x00\x00'
p2142
tp2143
Rp2144
ag3
(g1215
S'\x00\x00\x80?'
p2145
tp2146
Rp2147
aa(lp2148
g3
(g1215
S'\x00\x00\x00\x00'
p2149
tp2150
Rp2151
ag3
(g1215
S'\x00\x00\x80?'
p2152
tp2153
Rp2154
aa(lp2155
g3
(g1215
S'\x00\x00\xc0>'
p2156
tp2157
Rp2158
ag3
(g1215
S'\x00\x000?'
p2159
tp2160
Rp2161
aa(lp2162
g3
(g1215
S'\x00\x00\x00\x00'
p2163
tp2164
Rp2165
ag3
(g1215
S'\x00\x000?'
p2166
tp2167
Rp2168
aa(lp2169
g3
(g1215
S'\x00\x00\x00\x00'
p2170
tp2171
Rp2172
ag3
(g1215
S'\x00\x00@?'
p2173
tp2174
Rp2175
aa(lp2176
g3
(g1215
S'\x00\x00\x00\x00'
p2177
tp2178
Rp2179
ag3
(g1215
S'\x00\x00 ?'
p2180
tp2181
Rp2182
aa(lp2183
g3
(g1215
S'\x00\x00\x00>'
p2184
tp2185
Rp2186
ag3
(g1215
S'\x00\x000?'
p2187
tp2188
Rp2189
aa(lp2190
g3
(g1215
S'\x00\x00\x00\x00'
p2191
tp2192
Rp2193
ag3
(g1215
S'\x00\x00`?'
p2194
tp2195
Rp2196
aa(lp2197
g3
(g1215
S'\x00\x00\x00\x00'
p2198
tp2199
Rp2200
ag3
(g1215
S'\x00\x00p?'
p2201
tp2202
Rp2203
aa(lp2204
g3
(g1215
S'\x00\x00\x00\x00'
p2205
tp2206
Rp2207
ag3
(g1215
S'\x00\x00P?'
p2208
tp2209
Rp2210
aa(lp2211
g3
(g1215
S'\x00\x00\x00\x00'
p2212
tp2213
Rp2214
ag3
(g1215
S'\x00\x00\x80?'
p2215
tp2216
Rp2217
aa(lp2218
g3
(g1215
S'\x00\x00\x00\x00'
p2219
tp2220
Rp2221
ag3
(g1215
S'\x00\x00p?'
p2222
tp2223
Rp2224
aa(lp2225
g3
(g1215
S'\x00\x00\x00\x00'
p2226
tp2227
Rp2228
ag3
(g1215
S'\x00\x00\x80?'
p2229
tp2230
Rp2231
aa(lp2232
g3
(g1215
S'\x00\x00\x00\x00'
p2233
tp2234
Rp2235
ag3
(g1215
S'\x00\x00\x80?'
p2236
tp2237
Rp2238
aa(lp2239
g3
(g1215
S'\x00\x00\x00\x00'
p2240
tp2241
Rp2242
ag3
(g1215
S'\x00\x00\x80?'
p2243
tp2244
Rp2245
aa(lp2246
g3
(g1215
S'\x00\x00\x00\x00'
p2247
tp2248
Rp2249
ag3
(g1215
S'\x00\x00P?'
p2250
tp2251
Rp2252
aa(lp2253
g3
(g1215
S'\x00\x00`?'
p2254
tp2255
Rp2256
ag3
(g1215
S'\x00\x00\x00?'
p2257
tp2258
Rp2259
aa(lp2260
g3
(g1215
S'\x00\x00\x00\x00'
p2261
tp2262
Rp2263
ag3
(g1215
S'\x00\x00`?'
p2264
tp2265
Rp2266
aa(lp2267
g3
(g1215
S'\x00\x00\x00\x00'
p2268
tp2269
Rp2270
ag3
(g1215
S'\x00\x00P?'
p2271
tp2272
Rp2273
aa(lp2274
g3
(g1215
S'\x00\x00`?'
p2275
tp2276
Rp2277
ag3
(g1215
S'\x00\x00\x00?'
p2278
tp2279
Rp2280
aa(lp2281
g3
(g1215
S'\x00\x00\x00\x00'
p2282
tp2283
Rp2284
ag3
(g1215
S'\x00\x00 ?'
p2285
tp2286
Rp2287
aa(lp2288
g3
(g1215
S'\x00\x00@?'
p2289
tp2290
Rp2291
ag3
(g1215
S'\x00\x00\x00?'
p2292
tp2293
Rp2294
aa(lp2295
g3
(g1215
S'\x00\x00\x00\x00'
p2296
tp2297
Rp2298
ag3
(g1215
S'\x00\x00\x10?'
p2299
tp2300
Rp2301
aa(lp2302
g3
(g1215
S'\x00\x00\x80>'
p2303
tp2304
Rp2305
ag3
(g1215
S'\x00\x00 ?'
p2306
tp2307
Rp2308
aa(lp2309
g3
(g1215
S'\x00\x00\x00\x00'
p2310
tp2311
Rp2312
ag3
(g1215
S'\x00\x00 ?'
p2313
tp2314
Rp2315
aa(lp2316
g3
(g1215
S'\x00\x00\x80>'
p2317
tp2318
Rp2319
ag3
(g1215
S'\x00\x000?'
p2320
tp2321
Rp2322
aa(lp2323
g3
(g1215
S'\x00\x00\x00\x00'
p2324
tp2325
Rp2326
ag3
(g1215
S'\x00\x00 ?'
p2327
tp2328
Rp2329
aa(lp2330
g3
(g1215
S'\x00\x00\x80>'
p2331
tp2332
Rp2333
ag3
(g1215
S'\x00\x00\x10?'
p2334
tp2335
Rp2336
aa(lp2337
g3
(g1215
S'\x00\x00\x00\x00'
p2338
tp2339
Rp2340
ag3
(g1215
S'\x00\x00@?'
p2341
tp2342
Rp2343
aa(lp2344
g3
(g1215
S'\x00\x00\x00\x00'
p2345
tp2346
Rp2347
ag3
(g1215
S'\x00\x00P?'
p2348
tp2349
Rp2350
aa(lp2351
g3
(g1215
S'\x00\x00`?'
p2352
tp2353
Rp2354
ag3
(g1215
S'\x00\x000?'
p2355
tp2356
Rp2357
aa(lp2358
g3
(g1215
S'\x00\x00\x00\x00'
p2359
tp2360
Rp2361
ag3
(g1215
S'\x00\x00\x00?'
p2362
tp2363
Rp2364
aa(lp2365
g3
(g1215
S'\x00\x00\x00\x00'
p2366
tp2367
Rp2368
ag3
(g1215
S'\x00\x00P?'
p2369
tp2370
Rp2371
aa(lp2372
g3
(g1215
S'\x00\x00\x00>'
p2373
tp2374
Rp2375
ag3
(g1215
S'\x00\x00\x80?'
p2376
tp2377
Rp2378
aa(lp2379
g3
(g1215
S'\x00\x00\x00\x00'
p2380
tp2381
Rp2382
ag3
(g1215
S'\x00\x00P?'
p2383
tp2384
Rp2385
aa(lp2386
g3
(g1215
S'\x00\x00 ?'
p2387
tp2388
Rp2389
ag3
(g1215
S'\x00\x00 ?'
p2390
tp2391
Rp2392
aa(lp2393
g3
(g1215
S'\x00\x00\x00\x00'
p2394
tp2395
Rp2396
ag3
(g1215
S'\x00\x00\x10?'
p2397
tp2398
Rp2399
aa(lp2400
g3
(g1215
S'\x00\x00\x00\x00'
p2401
tp2402
Rp2403
ag3
(g1215
S'\x00\x00 ?'
p2404
tp2405
Rp2406
aa(lp2407
g3
(g1215
S'\x00\x00\x00\x00'
p2408
tp2409
Rp2410
ag3
(g1215
S'\x00\x00\x80?'
p2411
tp2412
Rp2413
aa(lp2414
g3
(g1215
S'\x00\x00\x00\x00'
p2415
tp2416
Rp2417
ag3
(g1215
S'\x00\x00P?'
p2418
tp2419
Rp2420
aa(lp2421
g3
(g1215
S'\x00\x00\x00\x00'
p2422
tp2423
Rp2424
ag3
(g1215
S'\x00\x00\x80?'
p2425
tp2426
Rp2427
aa(lp2428
g3
(g1215
S'\x00\x00\x00\x00'
p2429
tp2430
Rp2431
ag3
(g1215
S'\x00\x00\x80?'
p2432
tp2433
Rp2434
aa(lp2435
g3
(g1215
S'\x00\x00\x00\x00'
p2436
tp2437
Rp2438
ag3
(g1215
S'\x00\x00\x80?'
p2439
tp2440
Rp2441
aa(lp2442
g3
(g1215
S'\x00\x00 ?'
p2443
tp2444
Rp2445
ag3
(g1215
S'\x00\x00`?'
p2446
tp2447
Rp2448
aa(lp2449
g3
(g1215
S'\x00\x00\x00\x00'
p2450
tp2451
Rp2452
ag3
(g1215
S'\x00\x00\x10?'
p2453
tp2454
Rp2455
aa(lp2456
g3
(g1215
S'\x00\x00\x00?'
p2457
tp2458
Rp2459
ag3
(g1215
S'\x00\x00\x10?'
p2460
tp2461
Rp2462
aa(lp2463
g3
(g1215
S'\x00\x00\x00\x00'
p2464
tp2465
Rp2466
ag3
(g1215
S'\x00\x00`?'
p2467
tp2468
Rp2469
aa(lp2470
g3
(g1215
S'\x00\x00\x00\x00'
p2471
tp2472
Rp2473
ag3
(g1215
S'\x00\x00\x80?'
p2474
tp2475
Rp2476
aa(lp2477
g3
(g1215
S'\x00\x00\x00?'
p2478
tp2479
Rp2480
ag3
(g1215
S'\x00\x00p?'
p2481
tp2482
Rp2483
aa(lp2484
g3
(g1215
S'\x00\x00\x00\x00'
p2485
tp2486
Rp2487
ag3
(g1215
S'\x00\x00 ?'
p2488
tp2489
Rp2490
aa(lp2491
g3
(g1215
S'\x00\x00\x00\x00'
p2492
tp2493
Rp2494
ag3
(g1215
S'\x00\x00P?'
p2495
tp2496
Rp2497
aa(lp2498
g3
(g1215
S'\x00\x00\x00\x00'
p2499
tp2500
Rp2501
ag3
(g1215
S'\x00\x00\x80?'
p2502
tp2503
Rp2504
aa(lp2505
g3
(g1215
S'\x00\x00\x00\x00'
p2506
tp2507
Rp2508
ag3
(g1215
S'\x00\x00\x80?'
p2509
tp2510
Rp2511
aa(lp2512
g3
(g1215
S'\x00\x00\x00\x00'
p2513
tp2514
Rp2515
ag3
(g1215
S'\x00\x00\x80?'
p2516
tp2517
Rp2518
aa(lp2519
g3
(g1215
S'\x00\x00\x00\x00'
p2520
tp2521
Rp2522
ag3
(g1215
S'\x00\x00p?'
p2523
tp2524
Rp2525
aa(lp2526
g3
(g1215
S'\x00\x00\x00>'
p2527
tp2528
Rp2529
ag3
(g1215
S'\x00\x00p?'
p2530
tp2531
Rp2532
aa(lp2533
g3
(g1215
S'\x00\x00\x00\x00'
p2534
tp2535
Rp2536
ag3
(g1215
S'\x00\x00p?'
p2537
tp2538
Rp2539
aa(lp2540
g3
(g1215
S'\x00\x00\x00\x00'
p2541
tp2542
Rp2543
ag3
(g1215
S'\x00\x00\x80?'
p2544
tp2545
Rp2546
aa(lp2547
g3
(g1215
S'\x00\x00\x00\x00'
p2548
tp2549
Rp2550
ag3
(g1215
S'\x00\x00p?'
p2551
tp2552
Rp2553
aa(lp2554
g3
(g1215
S'\x00\x00\x00\x00'
p2555
tp2556
Rp2557
ag3
(g1215
S'\x00\x00`?'
p2558
tp2559
Rp2560
aa(lp2561
g3
(g1215
S'\x00\x00\x00>'
p2562
tp2563
Rp2564
ag3
(g1215
S'\x00\x00\x80?'
p2565
tp2566
Rp2567
aa(lp2568
g3
(g1215
S'\x00\x00\x00\x00'
p2569
tp2570
Rp2571
ag3
(g1215
S'\x00\x00\x80?'
p2572
tp2573
Rp2574
aa(lp2575
g3
(g1215
S'\x00\x00\x00\x00'
p2576
tp2577
Rp2578
ag3
(g1215
S'\x00\x00p?'
p2579
tp2580
Rp2581
aa(lp2582
g3
(g1215
S'\x00\x00\x00>'
p2583
tp2584
Rp2585
ag3
(g1215
S'\x00\x00P?'
p2586
tp2587
Rp2588
aa(lp2589
g3
(g1215
S'\x00\x00\x00\x00'
p2590
tp2591
Rp2592
ag3
(g1215
S'\x00\x00\x10?'
p2593
tp2594
Rp2595
aa(lp2596
g3
(g1215
S'\x00\x00\x00>'
p2597
tp2598
Rp2599
ag3
(g1215
S'\x00\x00\x00?'
p2600
tp2601
Rp2602
aa(lp2603
g3
(g1215
S'\x00\x00\x00\x00'
p2604
tp2605
Rp2606
ag3
(g1215
S'\x00\x00`?'
p2607
tp2608
Rp2609
aa(lp2610
g3
(g1215
S'\x00\x00\x00\x00'
p2611
tp2612
Rp2613
ag3
(g1215
S'\x00\x00\x80?'
p2614
tp2615
Rp2616
aa(lp2617
g3
(g1215
S'\x00\x00\x00\x00'
p2618
tp2619
Rp2620
ag3
(g1215
S'\x00\x00p?'
p2621
tp2622
Rp2623
aa(lp2624
g3
(g1215
S'\x00\x00\x00\x00'
p2625
tp2626
Rp2627
ag3
(g1215
S'\x00\x00\x80?'
p2628
tp2629
Rp2630
aa(lp2631
g3
(g1215
S'\x00\x00\x00\x00'
p2632
tp2633
Rp2634
ag3
(g1215
S'\x00\x00\x80?'
p2635
tp2636
Rp2637
aa(lp2638
g3
(g1215
S'\x00\x00\x00\x00'
p2639
tp2640
Rp2641
ag3
(g1215
S'\x00\x00p?'
p2642
tp2643
Rp2644
aa(lp2645
g3
(g1215
S'\x00\x00\x00>'
p2646
tp2647
Rp2648
ag3
(g1215
S'\x00\x00p?'
p2649
tp2650
Rp2651
aa(lp2652
g3
(g1215
S'\x00\x00\x00\x00'
p2653
tp2654
Rp2655
ag3
(g1215
S'\x00\x00P?'
p2656
tp2657
Rp2658
aa(lp2659
g3
(g1215
S'\x00\x00\x00\x00'
p2660
tp2661
Rp2662
ag3
(g1215
S'\x00\x00p?'
p2663
tp2664
Rp2665
aa(lp2666
g3
(g1215
S'\x00\x00\x00?'
p2667
tp2668
Rp2669
ag3
(g1215
S'\x00\x00p?'
p2670
tp2671
Rp2672
aa(lp2673
g3
(g1215
S'\x00\x00\x00\x00'
p2674
tp2675
Rp2676
ag3
(g1215
S'\x00\x00 ?'
p2677
tp2678
Rp2679
aa(lp2680
g3
(g1215
S'\x00\x00\x00\x00'
p2681
tp2682
Rp2683
ag3
(g1215
S'\x00\x00 ?'
p2684
tp2685
Rp2686
aa(lp2687
g3
(g1215
S'\x00\x00\xc0>'
p2688
tp2689
Rp2690
ag3
(g1215
S'\x00\x00\x80?'
p2691
tp2692
Rp2693
aa(lp2694
g3
(g1215
S'\x00\x00\x00\x00'
p2695
tp2696
Rp2697
ag3
(g1215
S'\x00\x00@?'
p2698
tp2699
Rp2700
aa(lp2701
g3
(g1215
S'\x00\x00\x00>'
p2702
tp2703
Rp2704
ag3
(g1215
S'\x00\x00P?'
p2705
tp2706
Rp2707
aa(lp2708
g3
(g1215
S'\x00\x00\x00\x00'
p2709
tp2710
Rp2711
ag3
(g1215
S'\x00\x000?'
p2712
tp2713
Rp2714
aa(lp2715
g3
(g1215
S'\x00\x00\x00\x00'
p2716
tp2717
Rp2718
ag3
(g1215
S'\x00\x00\x80?'
p2719
tp2720
Rp2721
aa(lp2722
g3
(g1215
S'\x00\x00\x00\x00'
p2723
tp2724
Rp2725
ag3
(g1215
S'\x00\x00\x80?'
p2726
tp2727
Rp2728
aa(lp2729
g3
(g1215
S'\x00\x00\x00\x00'
p2730
tp2731
Rp2732
ag3
(g1215
S'\x00\x00p?'
p2733
tp2734
Rp2735
aa(lp2736
g3
(g1215
S'\x00\x00\x00\x00'
p2737
tp2738
Rp2739
ag3
(g1215
S'\x00\x00`?'
p2740
tp2741
Rp2742
aa(lp2743
g3
(g1215
S'\x00\x00\x00\x00'
p2744
tp2745
Rp2746
ag3
(g1215
S'\x00\x00P?'
p2747
tp2748
Rp2749
aa(lp2750
g3
(g1215
S'\x00\x00@?'
p2751
tp2752
Rp2753
ag3
(g1215
S'\x00\x00 ?'
p2754
tp2755
Rp2756
aa(lp2757
g3
(g1215
S'\x00\x00\x00\x00'
p2758
tp2759
Rp2760
ag3
(g1215
S'\x00\x00 ?'
p2761
tp2762
Rp2763
aa(lp2764
g3
(g1215
S'\x00\x00\x80?'
p2765
tp2766
Rp2767
ag3
(g1215
S'\x00\x00\x00?'
p2768
tp2769
Rp2770
aa(lp2771
g3
(g1215
S'\x00\x00\x00\x00'
p2772
tp2773
Rp2774
ag3
(g1215
S'\x00\x00\x00?'
p2775
tp2776
Rp2777
aa(lp2778
g3
(g1215
S'\x00\x00\x00\x00'
p2779
tp2780
Rp2781
ag3
(g1215
S'\x00\x00@?'
p2782
tp2783
Rp2784
aa(lp2785
g3
(g1215
S'\x00\x00\x00\x00'
p2786
tp2787
Rp2788
ag3
(g1215
S'\x00\x00P?'
p2789
tp2790
Rp2791
aa(lp2792
g3
(g1215
S'\x00\x00\x00\x00'
p2793
tp2794
Rp2795
ag3
(g1215
S'\x00\x00\x80?'
p2796
tp2797
Rp2798
aa(lp2799
g3
(g1215
S'\x00\x00\x00>'
p2800
tp2801
Rp2802
ag3
(g1215
S'\x00\x00p?'
p2803
tp2804
Rp2805
aa(lp2806
g3
(g1215
S'\x00\x00\x00\x00'
p2807
tp2808
Rp2809
ag3
(g1215
S'\x00\x00p?'
p2810
tp2811
Rp2812
aa(lp2813
g3
(g1215
S'\x00\x00\x00\x00'
p2814
tp2815
Rp2816
ag3
(g1215
S'\x00\x00p?'
p2817
tp2818
Rp2819
aa(lp2820
g3
(g1215
S'\x00\x00\x00\x00'
p2821
tp2822
Rp2823
ag3
(g1215
S'\x00\x00 ?'
p2824
tp2825
Rp2826
aa(lp2827
g3
(g1215
S'\x00\x00\x80?'
p2828
tp2829
Rp2830
ag3
(g1215
S'\x00\x00\x00?'
p2831
tp2832
Rp2833
aa(lp2834
g3
(g1215
S'\x00\x00\x00\x00'
p2835
tp2836
Rp2837
ag3
(g1215
S'\x00\x00 ?'
p2838
tp2839
Rp2840
aa(lp2841
g3
(g1215
S'\x00\x00\x00\x00'
p2842
tp2843
Rp2844
ag3
(g1215
S'\x00\x00\x80?'
p2845
tp2846
Rp2847
aa(lp2848
g3
(g1215
S'\x00\x00\x00>'
p2849
tp2850
Rp2851
ag3
(g1215
S'\x00\x00\x80?'
p2852
tp2853
Rp2854
aa(lp2855
g3
(g1215
S'\x00\x00\x00\x00'
p2856
tp2857
Rp2858
ag3
(g1215
S'\x00\x00P?'
p2859
tp2860
Rp2861
aa(lp2862
g3
(g1215
S'\x00\x00\x00\x00'
p2863
tp2864
Rp2865
ag3
(g1215
S'\x00\x00\x80?'
p2866
tp2867
Rp2868
aa(lp2869
g3
(g1215
S'\x00\x00\x00>'
p2870
tp2871
Rp2872
ag3
(g1215
S'\x00\x00`?'
p2873
tp2874
Rp2875
aa(lp2876
g3
(g1215
S'\x00\x00\x00?'
p2877
tp2878
Rp2879
ag3
(g1215
S'\x00\x00p?'
p2880
tp2881
Rp2882
aa(lp2883
g3
(g1215
S'\x00\x00\x00\x00'
p2884
tp2885
Rp2886
ag3
(g1215
S'\x00\x000?'
p2887
tp2888
Rp2889
aa(lp2890
g3
(g1215
S'\x00\x00\x00\x00'
p2891
tp2892
Rp2893
ag3
(g1215
S'\x00\x000?'
p2894
tp2895
Rp2896
aa(lp2897
g3
(g1215
S'\x00\x00\x00\x00'
p2898
tp2899
Rp2900
ag3
(g1215
S'\x00\x00p?'
p2901
tp2902
Rp2903
aa(lp2904
g3
(g1215
S'\x00\x00\x00\x00'
p2905
tp2906
Rp2907
ag3
(g1215
S'\x00\x00\x80?'
p2908
tp2909
Rp2910
aa(lp2911
g3
(g1215
S'\x00\x00\x00\x00'
p2912
tp2913
Rp2914
ag3
(g1215
S'\x00\x00p?'
p2915
tp2916
Rp2917
aa(lp2918
g3
(g1215
S'\x00\x00\x00\x00'
p2919
tp2920
Rp2921
ag3
(g1215
S'\x00\x00p?'
p2922
tp2923
Rp2924
aa(lp2925
g3
(g1215
S'\x00\x00\x00\x00'
p2926
tp2927
Rp2928
ag3
(g1215
S'\x00\x00\x80?'
p2929
tp2930
Rp2931
aa(lp2932
g3
(g1215
S'\x00\x00 ?'
p2933
tp2934
Rp2935
ag3
(g1215
S'\x00\x00`?'
p2936
tp2937
Rp2938
aa(lp2939
g3
(g1215
S'\x00\x00\x00\x00'
p2940
tp2941
Rp2942
ag3
(g1215
S'\x00\x00P?'
p2943
tp2944
Rp2945
aa(lp2946
g3
(g1215
S'\x00\x00`?'
p2947
tp2948
Rp2949
ag3
(g1215
S'\x00\x000?'
p2950
tp2951
Rp2952
aa(lp2953
g3
(g1215
S'\x00\x00\x00\x00'
p2954
tp2955
Rp2956
ag3
(g1215
S'\x00\x00\x00?'
p2957
tp2958
Rp2959
aa(lp2960
g3
(g1215
S'\x00\x00\x00\x00'
p2961
tp2962
Rp2963
ag3
(g1215
S'\x00\x00\x00?'
p2964
tp2965
Rp2966
aa(lp2967
g3
(g1215
S'\x00\x00\x00\x00'
p2968
tp2969
Rp2970
ag3
(g1215
S'\x00\x00p?'
p2971
tp2972
Rp2973
aa(lp2974
g3
(g1215
S'\x00\x00\x00\x00'
p2975
tp2976
Rp2977
ag3
(g1215
S'\x00\x00P?'
p2978
tp2979
Rp2980
aa(lp2981
g3
(g1215
S'\x00\x00 ?'
p2982
tp2983
Rp2984
ag3
(g1215
S'\x00\x00 ?'
p2985
tp2986
Rp2987
aa(lp2988
g3
(g1215
S'\x00\x00\x00\x00'
p2989
tp2990
Rp2991
ag3
(g1215
S'\x00\x00\x00?'
p2992
tp2993
Rp2994
aa(lp2995
g3
(g1215
S'\x00\x00\x00\x00'
p2996
tp2997
Rp2998
ag3
(g1215
S'\x00\x00 ?'
p2999
tp3000
Rp3001
aa(lp3002
g3
(g1215
S'\x00\x00\x00\x00'
p3003
tp3004
Rp3005
ag3
(g1215
S'\x00\x00\x80?'
p3006
tp3007
Rp3008
aa(lp3009
g3
(g1215
S'\x00\x00\x00\x00'
p3010
tp3011
Rp3012
ag3
(g1215
S'\x00\x00p?'
p3013
tp3014
Rp3015
aa(lp3016
g3
(g1215
S'\x00\x00\x00\x00'
p3017
tp3018
Rp3019
ag3
(g1215
S'\x00\x00P?'
p3020
tp3021
Rp3022
aa(lp3023
g3
(g1215
S'\x00\x00\x00\x00'
p3024
tp3025
Rp3026
ag3
(g1215
S'\x00\x00\x80?'
p3027
tp3028
Rp3029
aa(lp3030
g3
(g1215
S'\x00\x00\x00\x00'
p3031
tp3032
Rp3033
ag3
(g1215
S'\x00\x00`?'
p3034
tp3035
Rp3036
aa(lp3037
g3
(g1215
S'\x00\x00\x00\x00'
p3038
tp3039
Rp3040
ag3
(g1215
S'\x00\x00\x80?'
p3041
tp3042
Rp3043
aa(lp3044
g3
(g1215
S'\x00\x00\x00\x00'
p3045
tp3046
Rp3047
ag3
(g1215
S'\x00\x00p?'
p3048
tp3049
Rp3050
aa(lp3051
g3
(g1215
S'\x00\x00\x80>'
p3052
tp3053
Rp3054
ag3
(g1215
S'\x00\x00P?'
p3055
tp3056
Rp3057
aa(lp3058
g3
(g1215
S'\x00\x00\x00\x00'
p3059
tp3060
Rp3061
ag3
(g1215
S'\x00\x00P?'
p3062
tp3063
Rp3064
aa(lp3065
g3
(g1215
S'\x00\x00`?'
p3066
tp3067
Rp3068
ag3
(g1215
S'\x00\x00 ?'
p3069
tp3070
Rp3071
aa(lp3072
g3
(g1215
S'\x00\x00\x00\x00'
p3073
tp3074
Rp3075
ag3
(g1215
S'\x00\x00P?'
p3076
tp3077
Rp3078
aa(lp3079
g3
(g1215
S'\x00\x00\x00\x00'
p3080
tp3081
Rp3082
ag3
(g1215
S'\x00\x00P?'
p3083
tp3084
Rp3085
aa(lp3086
g3
(g1215
S'\x00\x00\x00\x00'
p3087
tp3088
Rp3089
ag3
(g1215
S'\x00\x00p?'
p3090
tp3091
Rp3092
aa(lp3093
g3
(g1215
S'\x00\x00\x00\x00'
p3094
tp3095
Rp3096
ag3
(g1215
S'\x00\x00p?'
p3097
tp3098
Rp3099
aa(lp3100
g3
(g1215
S'\x00\x00\x80>'
p3101
tp3102
Rp3103
ag3
(g1215
S'\x00\x00\x80?'
p3104
tp3105
Rp3106
aa(lp3107
g3
(g1215
S'\x00\x00\x00\x00'
p3108
tp3109
Rp3110
ag3
(g1215
S'\x00\x00p?'
p3111
tp3112
Rp3113
aa(lp3114
g3
(g1215
S'\x00\x00\x00\x00'
p3115
tp3116
Rp3117
ag3
(g1215
S'\x00\x00`?'
p3118
tp3119
Rp3120
aa(lp3121
g3
(g1215
S'\x00\x00\x00\x00'
p3122
tp3123
Rp3124
ag3
(g1215
S'\x00\x00P?'
p3125
tp3126
Rp3127
aa(lp3128
g3
(g1215
S'\x00\x00\x00\x00'
p3129
tp3130
Rp3131
ag3
(g1215
S'\x00\x00@?'
p3132
tp3133
Rp3134
aa(lp3135
g3
(g1215
S'\x00\x00@?'
p3136
tp3137
Rp3138
ag3
(g1215
S'\x00\x00\x10?'
p3139
tp3140
Rp3141
aa(lp3142
g3
(g1215
S'\x00\x00\x00\x00'
p3143
tp3144
Rp3145
ag3
(g1215
S'\x00\x00 ?'
p3146
tp3147
Rp3148
aa(lp3149
g3
(g1215
S'\x00\x00\x00\x00'
p3150
tp3151
Rp3152
ag3
(g1215
S'\x00\x00P?'
p3153
tp3154
Rp3155
aa(lp3156
g3
(g1215
S'\x00\x00\x00\x00'
p3157
tp3158
Rp3159
ag3
(g1215
S'\x00\x00p?'
p3160
tp3161
Rp3162
aa(lp3163
g3
(g1215
S'\x00\x00\x00\x00'
p3164
tp3165
Rp3166
ag3
(g1215
S'\x00\x00P?'
p3167
tp3168
Rp3169
aa(lp3170
g3
(g1215
S'\x00\x00\x00>'
p3171
tp3172
Rp3173
ag3
(g1215
S'\x00\x00p?'
p3174
tp3175
Rp3176
aa(lp3177
g3
(g1215
S'\x00\x00\x00\x00'
p3178
tp3179
Rp3180
ag3
(g1215
S'\x00\x00p?'
p3181
tp3182
Rp3183
aa(lp3184
g3
(g1215
S'\x00\x00\x00\x00'
p3185
tp3186
Rp3187
ag3
(g1215
S'\x00\x00`?'
p3188
tp3189
Rp3190
aa(lp3191
g3
(g1215
S'\x00\x00\x80?'
p3192
tp3193
Rp3194
ag3
(g1215
S'\x00\x000?'
p3195
tp3196
Rp3197
aa(lp3198
g3
(g1215
S'\x00\x00\x00\x00'
p3199
tp3200
Rp3201
ag3
(g1215
S'\x00\x00\x10?'
p3202
tp3203
Rp3204
aa(lp3205
g3
(g1215
S'\x00\x00\x00>'
p3206
tp3207
Rp3208
ag3
(g1215
S'\x00\x00 ?'
p3209
tp3210
Rp3211
aa(lp3212
g3
(g1215
S'\x00\x00\x00\x00'
p3213
tp3214
Rp3215
ag3
(g1215
S'\x00\x000?'
p3216
tp3217
Rp3218
aa(lp3219
g3
(g1215
S'\x00\x00\x00\x00'
p3220
tp3221
Rp3222
ag3
(g1215
S'\x00\x00p?'
p3223
tp3224
Rp3225
aa(lp3226
g3
(g1215
S'\x00\x00\x00\x00'
p3227
tp3228
Rp3229
ag3
(g1215
S'\x00\x00\x80?'
p3230
tp3231
Rp3232
aa(lp3233
g3
(g1215
S'\x00\x00\x00\x00'
p3234
tp3235
Rp3236
ag3
(g1215
S'\x00\x00P?'
p3237
tp3238
Rp3239
aa(lp3240
g3
(g1215
S'\x00\x00\x80>'
p3241
tp3242
Rp3243
ag3
(g1215
S'\x00\x00@?'
p3244
tp3245
Rp3246
aa(lp3247
g3
(g1215
S'\x00\x00\x00\x00'
p3248
tp3249
Rp3250
ag3
(g1215
S'\x00\x00P?'
p3251
tp3252
Rp3253
aa(lp3254
g3
(g1215
S'\x00\x00\x00?'
p3255
tp3256
Rp3257
ag3
(g1215
S'\x00\x00@?'
p3258
tp3259
Rp3260
aa(lp3261
g3
(g1215
S'\x00\x00\x00\x00'
p3262
tp3263
Rp3264
ag3
(g1215
S'\x00\x00p?'
p3265
tp3266
Rp3267
aa(lp3268
g3
(g1215
S'\x00\x00\x00\x00'
p3269
tp3270
Rp3271
ag3
(g1215
S'\x00\x00`?'
p3272
tp3273
Rp3274
aa(lp3275
g3
(g1215
S'\x00\x00\x00\x00'
p3276
tp3277
Rp3278
ag3
(g1215
S'\x00\x00P?'
p3279
tp3280
Rp3281
aa(lp3282
g3
(g1215
S'\x00\x00\x00\x00'
p3283
tp3284
Rp3285
ag3
(g1215
S'\x00\x00p?'
p3286
tp3287
Rp3288
aa(lp3289
g3
(g1215
S'\x00\x00\x00\x00'
p3290
tp3291
Rp3292
ag3
(g1215
S'\x00\x00\x80?'
p3293
tp3294
Rp3295
aa(lp3296
g3
(g1215
S'\x00\x00\x00\x00'
p3297
tp3298
Rp3299
ag3
(g1215
S'\x00\x00\x80?'
p3300
tp3301
Rp3302
aa(lp3303
g3
(g1215
S'\x00\x00\x00\x00'
p3304
tp3305
Rp3306
ag3
(g1215
S'\x00\x00\x80?'
p3307
tp3308
Rp3309
aa(lp3310
g3
(g1215
S'\x00\x00\x00>'
p3311
tp3312
Rp3313
ag3
(g1215
S'\x00\x00\x80?'
p3314
tp3315
Rp3316
aa(lp3317
g3
(g1215
S'\x00\x00\x00>'
p3318
tp3319
Rp3320
ag3
(g1215
S'\x00\x00p?'
p3321
tp3322
Rp3323
aa(lp3324
g3
(g1215
S'\x00\x00\x00\x00'
p3325
tp3326
Rp3327
ag3
(g1215
S'\x00\x00`?'
p3328
tp3329
Rp3330
aa(lp3331
g3
(g1215
S'\x00\x00\x00?'
p3332
tp3333
Rp3334
ag3
(g1215
S'\x00\x00P?'
p3335
tp3336
Rp3337
aa(lp3338
g3
(g1215
S'\x00\x00\x00\x00'
p3339
tp3340
Rp3341
ag3
(g1215
S'\x00\x00`?'
p3342
tp3343
Rp3344
aa(lp3345
g3
(g1215
S'\x00\x00 ?'
p3346
tp3347
Rp3348
ag3
(g1215
S'\x00\x000?'
p3349
tp3350
Rp3351
aa(lp3352
g3
(g1215
S'\x00\x00\x00\x00'
p3353
tp3354
Rp3355
ag3
(g1215
S'\x00\x00 ?'
p3356
tp3357
Rp3358
aa(lp3359
g3
(g1215
S'\x00\x00`?'
p3360
tp3361
Rp3362
ag3
(g1215
S'\x00\x00\x00?'
p3363
tp3364
Rp3365
aa(lp3366
g3
(g1215
S'\x00\x00\x00\x00'
p3367
tp3368
Rp3369
ag3
(g1215
S'\x00\x00\x00?'
p3370
tp3371
Rp3372
aa(lp3373
g3
(g1215
S'\x00\x00\x00\x00'
p3374
tp3375
Rp3376
ag3
(g1215
S'\x00\x00P?'
p3377
tp3378
Rp3379
aa(lp3380
g3
(g1215
S'\x00\x00\x00>'
p3381
tp3382
Rp3383
ag3
(g1215
S'\x00\x00\x80?'
p3384
tp3385
Rp3386
aa(lp3387
g3
(g1215
S'\x00\x00\x00\x00'
p3388
tp3389
Rp3390
ag3
(g1215
S'\x00\x00p?'
p3391
tp3392
Rp3393
aa(lp3394
g3
(g1215
S'\x00\x00\x00\x00'
p3395
tp3396
Rp3397
ag3
(g1215
S'\x00\x00\x80?'
p3398
tp3399
Rp3400
aa(lp3401
g3
(g1215
S'\x00\x00\x00\x00'
p3402
tp3403
Rp3404
ag3
(g1215
S'\x00\x00P?'
p3405
tp3406
Rp3407
aa(lp3408
g3
(g1215
S'\x00\x00\x00\x00'
p3409
tp3410
Rp3411
ag3
(g1215
S'\x00\x00`?'
p3412
tp3413
Rp3414
aa(lp3415
g3
(g1215
S'\x00\x00@?'
p3416
tp3417
Rp3418
ag3
(g1215
S'\x00\x00\x10?'
p3419
tp3420
Rp3421
aa(lp3422
g3
(g1215
S'\x00\x00\x00\x00'
p3423
tp3424
Rp3425
ag3
(g1215
S'\x00\x000?'
p3426
tp3427
Rp3428
aa(lp3429
g3
(g1215
S'\x00\x00\x00>'
p3430
tp3431
Rp3432
ag3
(g1215
S'\x00\x00@?'
p3433
tp3434
Rp3435
aa(lp3436
g3
(g1215
S'\x00\x00\x00\x00'
p3437
tp3438
Rp3439
ag3
(g1215
S'\x00\x00 ?'
p3440
tp3441
Rp3442
aa(lp3443
g3
(g1215
S'\x00\x00\x80>'
p3444
tp3445
Rp3446
ag3
(g1215
S'\x00\x00@?'
p3447
tp3448
Rp3449
aa(lp3450
g3
(g1215
S'\x00\x00\x00\x00'
p3451
tp3452
Rp3453
ag3
(g1215
S'\x00\x00 ?'
p3454
tp3455
Rp3456
aa(lp3457
g3
(g1215
S'\x00\x00\x00>'
p3458
tp3459
Rp3460
ag3
(g1215
S'\x00\x00@?'
p3461
tp3462
Rp3463
aa(lp3464
g3
(g1215
S'\x00\x00\x00\x00'
p3465
tp3466
Rp3467
ag3
(g1215
S'\x00\x00`?'
p3468
tp3469
Rp3470
aa(lp3471
g3
(g1215
S'\x00\x00\x00\x00'
p3472
tp3473
Rp3474
ag3
(g1215
S'\x00\x00p?'
p3475
tp3476
Rp3477
aa(lp3478
g3
(g1215
S'\x00\x00\x00>'
p3479
tp3480
Rp3481
ag3
(g1215
S'\x00\x00`?'
p3482
tp3483
Rp3484
aa(lp3485
g3
(g1215
S'\x00\x00\x00\x00'
p3486
tp3487
Rp3488
ag3
(g1215
S'\x00\x00p?'
p3489
tp3490
Rp3491
aa(lp3492
g3
(g1215
S'\x00\x00\x00\x00'
p3493
tp3494
Rp3495
ag3
(g1215
S'\x00\x00`?'
p3496
tp3497
Rp3498
aa(lp3499
g3
(g1215
S'\x00\x00\x00?'
p3500
tp3501
Rp3502
ag3
(g1215
S'\x00\x00@?'
p3503
tp3504
Rp3505
aa(lp3506
g3
(g1215
S'\x00\x00\x00\x00'
p3507
tp3508
Rp3509
ag3
(g1215
S'\x00\x00 ?'
p3510
tp3511
Rp3512
aa(lp3513
g3
(g1215
S'\x00\x00\x80>'
p3514
tp3515
Rp3516
ag3
(g1215
S'\x00\x00\x00?'
p3517
tp3518
Rp3519
aa(lp3520
g3
(g1215
S'\x00\x00\x00\x00'
p3521
tp3522
Rp3523
ag3
(g1215
S'\x00\x000?'
p3524
tp3525
Rp3526
aa(lp3527
g3
(g1215
S'\x00\x00\x00?'
p3528
tp3529
Rp3530
ag3
(g1215
S'\x00\x00 ?'
p3531
tp3532
Rp3533
aa(lp3534
g3
(g1215
S'\x00\x00\x00\x00'
p3535
tp3536
Rp3537
ag3
(g1215
S'\x00\x00\x00?'
p3538
tp3539
Rp3540
aa(lp3541
g3
(g1215
S'\x00\x00\x00\x00'
p3542
tp3543
Rp3544
ag3
(g1215
S'\x00\x00\x10?'
p3545
tp3546
Rp3547
aa(lp3548
g3
(g1215
S'\x00\x00\x00\x00'
p3549
tp3550
Rp3551
ag3
(g1215
S'\x00\x00P?'
p3552
tp3553
Rp3554
aa(lp3555
g3
(g1215
S'\x00\x00\x00\x00'
p3556
tp3557
Rp3558
ag3
(g1215
S'\x00\x00p?'
p3559
tp3560
Rp3561
aa(lp3562
g3
(g1215
S'\x00\x00\x00\x00'
p3563
tp3564
Rp3565
ag3
(g1215
S'\x00\x00p?'
p3566
tp3567
Rp3568
aa(lp3569
g3
(g1215
S'\x00\x00\x00\x00'
p3570
tp3571
Rp3572
ag3
(g1215
S'\x00\x00P?'
p3573
tp3574
Rp3575
aa(lp3576
g3
(g1215
S'\x00\x00\x80?'
p3577
tp3578
Rp3579
ag3
(g1215
S'\x00\x00\x10?'
p3580
tp3581
Rp3582
aa(lp3583
g3
(g1215
S'\x00\x00\x00\x00'
p3584
tp3585
Rp3586
ag3
(g1215
S'\x00\x00\x00?'
p3587
tp3588
Rp3589
aa(lp3590
g3
(g1215
S'\x00\x00\x00?'
p3591
tp3592
Rp3593
ag3
(g1215
S'\x00\x00\x00?'
p3594
tp3595
Rp3596
aa(lp3597
g3
(g1215
S'\x00\x00\x00\x00'
p3598
tp3599
Rp3600
ag3
(g1215
S'\x00\x00 ?'
p3601
tp3602
Rp3603
aa(lp3604
g3
(g1215
S'\x00\x00\x00\x00'
p3605
tp3606
Rp3607
ag3
(g1215
S'\x00\x00P?'
p3608
tp3609
Rp3610
aa(lp3611
g3
(g1215
S'\x00\x00\x00\x00'
p3612
tp3613
Rp3614
ag3
(g1215
S'\x00\x00p?'
p3615
tp3616
Rp3617
aa(lp3618
g3
(g1215
S'\x00\x00\x00\x00'
p3619
tp3620
Rp3621
ag3
(g1215
S'\x00\x00p?'
p3622
tp3623
Rp3624
aa(lp3625
g3
(g1215
S'\x00\x00\x00\x00'
p3626
tp3627
Rp3628
ag3
(g1215
S'\x00\x00\x80?'
p3629
tp3630
Rp3631
aa(lp3632
g3
(g1215
S'\x00\x00\x00\x00'
p3633
tp3634
Rp3635
ag3
(g1215
S'\x00\x00p?'
p3636
tp3637
Rp3638
aa(lp3639
g3
(g1215
S'\x00\x00\x00\x00'
p3640
tp3641
Rp3642
ag3
(g1215
S'\x00\x00\x80?'
p3643
tp3644
Rp3645
aa(lp3646
g3
(g1215
S'\x00\x00\x00\x00'
p3647
tp3648
Rp3649
ag3
(g1215
S'\x00\x00\x80?'
p3650
tp3651
Rp3652
aa(lp3653
g3
(g1215
S'\x00\x00\x00>'
p3654
tp3655
Rp3656
ag3
(g1215
S'\x00\x00`?'
p3657
tp3658
Rp3659
aa(lp3660
g3
(g1215
S'\x00\x00\x00>'
p3661
tp3662
Rp3663
ag3
(g1215
S'\x00\x00p?'
p3664
tp3665
Rp3666
aa(lp3667
g3
(g1215
S'\x00\x00\x00\x00'
p3668
tp3669
Rp3670
ag3
(g1215
S'\x00\x00`?'
p3671
tp3672
Rp3673
aa(lp3674
g3
(g1215
S'\x00\x00\x00\x00'
p3675
tp3676
Rp3677
ag3
(g1215
S'\x00\x00\x80?'
p3678
tp3679
Rp3680
aa(lp3681
g3
(g1215
S'\x00\x00\x00\x00'
p3682
tp3683
Rp3684
ag3
(g1215
S'\x00\x00\x80?'
p3685
tp3686
Rp3687
aa(lp3688
g3
(g1215
S'\x00\x00\x00\x00'
p3689
tp3690
Rp3691
ag3
(g1215
S'\x00\x00p?'
p3692
tp3693
Rp3694
aa(lp3695
g3
(g1215
S'\x00\x00\x00>'
p3696
tp3697
Rp3698
ag3
(g1215
S'\x00\x00\x80?'
p3699
tp3700
Rp3701
aa(lp3702
g3
(g1215
S'\x00\x00\x00\x00'
p3703
tp3704
Rp3705
ag3
(g1215
S'\x00\x00\x80?'
p3706
tp3707
Rp3708
aa(lp3709
g3
(g1215
S'\x00\x00\x00>'
p3710
tp3711
Rp3712
ag3
(g1215
S'\x00\x00\x80?'
p3713
tp3714
Rp3715
aa(lp3716
g3
(g1215
S'\x00\x00\x00>'
p3717
tp3718
Rp3719
ag3
(g1215
S'\x00\x00\x80?'
p3720
tp3721
Rp3722
aa(lp3723
g3
(g1215
S'\x00\x00\x00\x00'
p3724
tp3725
Rp3726
ag3
(g1215
S'\x00\x00\x80?'
p3727
tp3728
Rp3729
aa(lp3730
g3
(g1215
S'\x00\x00\x80>'
p3731
tp3732
Rp3733
ag3
(g1215
S'\x00\x00\x80?'
p3734
tp3735
Rp3736
aa(lp3737
g3
(g1215
S'\x00\x00\x00\x00'
p3738
tp3739
Rp3740
ag3
(g1215
S'\x00\x00\x80?'
p3741
tp3742
Rp3743
aa(lp3744
g3
(g1215
S'\x00\x00\x00\x00'
p3745
tp3746
Rp3747
ag3
(g1215
S'\x00\x00\x80?'
p3748
tp3749
Rp3750
aa(lp3751
g3
(g1215
S'\x00\x00\x00\x00'
p3752
tp3753
Rp3754
ag3
(g1215
S'\x00\x00\x80?'
p3755
tp3756
Rp3757
aa(lp3758
g3
(g1215
S'\x00\x00\x00\x00'
p3759
tp3760
Rp3761
ag3
(g1215
S'\x00\x00p?'
p3762
tp3763
Rp3764
aa(lp3765
g3
(g1215
S'\x00\x00\x00\x00'
p3766
tp3767
Rp3768
ag3
(g1215
S'\x00\x00`?'
p3769
tp3770
Rp3771
aa(lp3772
g3
(g1215
S'\x00\x00\x00\x00'
p3773
tp3774
Rp3775
ag3
(g1215
S'\x00\x00p?'
p3776
tp3777
Rp3778
aa(lp3779
g3
(g1215
S'\x00\x00@?'
p3780
tp3781
Rp3782
ag3
(g1215
S'\x00\x00p?'
p3783
tp3784
Rp3785
aa(lp3786
g3
(g1215
S'\x00\x00\x00\x00'
p3787
tp3788
Rp3789
ag3
(g1215
S'\x00\x000?'
p3790
tp3791
Rp3792
aa(lp3793
g3
(g1215
S'\x00\x00\x00\x00'
p3794
tp3795
Rp3796
ag3
(g1215
S'\x00\x00 ?'
p3797
tp3798
Rp3799
aa(lp3800
g3
(g1215
S'\x00\x00\x80>'
p3801
tp3802
Rp3803
ag3
(g1215
S'\x00\x00p?'
p3804
tp3805
Rp3806
aa(lp3807
g3
(g1215
S'\x00\x00\x00\x00'
p3808
tp3809
Rp3810
ag3
(g1215
S'\x00\x00P?'
p3811
tp3812
Rp3813
aa(lp3814
g3
(g1215
S'\x00\x00`?'
p3815
tp3816
Rp3817
ag3
(g1215
S'\x00\x00\x00?'
p3818
tp3819
Rp3820
aa(lp3821
g3
(g1215
S'\x00\x00\x00\x00'
p3822
tp3823
Rp3824
ag3
(g1215
S'\x00\x00 ?'
p3825
tp3826
Rp3827
aa(lp3828
g3
(g1215
S'\x00\x00\xc0>'
p3829
tp3830
Rp3831
ag3
(g1215
S'\x00\x00 ?'
p3832
tp3833
Rp3834
aa(lp3835
g3
(g1215
S'\x00\x00\x00\x00'
p3836
tp3837
Rp3838
ag3
(g1215
S'\x00\x00P?'
p3839
tp3840
Rp3841
aa(lp3842
g3
(g1215
S'\x00\x00\x00\x00'
p3843
tp3844
Rp3845
ag3
(g1215
S'\x00\x00`?'
p3846
tp3847
Rp3848
aa(lp3849
g3
(g1215
S'\x00\x00 ?'
p3850
tp3851
Rp3852
ag3
(g1215
S'\x00\x00@?'
p3853
tp3854
Rp3855
aa(lp3856
g3
(g1215
S'\x00\x00\x00\x00'
p3857
tp3858
Rp3859
ag3
(g1215
S'\x00\x00P?'
p3860
tp3861
Rp3862
aa(lp3863
g3
(g1215
S'\x00\x00\x00\x00'
p3864
tp3865
Rp3866
ag3
(g1215
S'\x00\x00\x80?'
p3867
tp3868
Rp3869
aa(lp3870
g3
(g1215
S'\x00\x00\x00>'
p3871
tp3872
Rp3873
ag3
(g1215
S'\x00\x00p?'
p3874
tp3875
Rp3876
aa(lp3877
g3
(g1215
S'\x00\x00\x00\x00'
p3878
tp3879
Rp3880
ag3
(g1215
S'\x00\x00P?'
p3881
tp3882
Rp3883
aa(lp3884
g3
(g1215
S'\x00\x00\xc0>'
p3885
tp3886
Rp3887
ag3
(g1215
S'\x00\x00P?'
p3888
tp3889
Rp3890
aa(lp3891
g3
(g1215
S'\x00\x00\x00\x00'
p3892
tp3893
Rp3894
ag3
(g1215
S'\x00\x000?'
p3895
tp3896
Rp3897
aa(lp3898
g3
(g1215
S'\x00\x00\x00\x00'
p3899
tp3900
Rp3901
ag3
(g1215
S'\x00\x00 ?'
p3902
tp3903
Rp3904
aa(lp3905
g3
(g1215
S'\x00\x00\x00\x00'
p3906
tp3907
Rp3908
ag3
(g1215
S'\x00\x00P?'
p3909
tp3910
Rp3911
aa(lp3912
g3
(g1215
S'\x00\x00\x00\x00'
p3913
tp3914
Rp3915
ag3
(g1215
S'\x00\x00\x80?'
p3916
tp3917
Rp3918
aa(lp3919
g3
(g1215
S'\x00\x00\x80>'
p3920
tp3921
Rp3922
ag3
(g1215
S'\x00\x00@?'
p3923
tp3924
Rp3925
aa(lp3926
g3
(g1215
S'\x00\x00\x00\x00'
p3927
tp3928
Rp3929
ag3
(g1215
S'\x00\x00 ?'
p3930
tp3931
Rp3932
aa(lp3933
g3
(g1215
S'\x00\x00\x00\x00'
p3934
tp3935
Rp3936
ag3
(g1215
S'\x00\x00`?'
p3937
tp3938
Rp3939
aa(lp3940
g3
(g1215
S'\x00\x00\x00>'
p3941
tp3942
Rp3943
ag3
(g1215
S'\x00\x00p?'
p3944
tp3945
Rp3946
aa(lp3947
g3
(g1215
S'\x00\x00\x00\x00'
p3948
tp3949
Rp3950
ag3
(g1215
S'\x00\x00\x80?'
p3951
tp3952
Rp3953
aa(lp3954
g3
(g1215
S'\x00\x00\x00\x00'
p3955
tp3956
Rp3957
ag3
(g1215
S'\x00\x00p?'
p3958
tp3959
Rp3960
aa(lp3961
g3
(g1215
S'\x00\x00\x00\x00'
p3962
tp3963
Rp3964
ag3
(g1215
S'\x00\x00p?'
p3965
tp3966
Rp3967
aa(lp3968
g3
(g1215
S'\x00\x00\x00\x00'
p3969
tp3970
Rp3971
ag3
(g1215
S'\x00\x00\x80?'
p3972
tp3973
Rp3974
aa(lp3975
g3
(g1215
S'\x00\x00\x00\x00'
p3976
tp3977
Rp3978
ag3
(g1215
S'\x00\x00\x80?'
p3979
tp3980
Rp3981
aa(lp3982
g3
(g1215
S'\x00\x00\x00\x00'
p3983
tp3984
Rp3985
ag3
(g1215
S'\x00\x00`?'
p3986
tp3987
Rp3988
aa(lp3989
g3
(g1215
S'\x00\x00\x00\x00'
p3990
tp3991
Rp3992
ag3
(g1215
S'\x00\x00P?'
p3993
tp3994
Rp3995
aa(lp3996
g3
(g1215
S'\x00\x00 ?'
p3997
tp3998
Rp3999
ag3
(g1215
S'\x00\x00 ?'
p4000
tp4001
Rp4002
aa(lp4003
g3
(g1215
S'\x00\x00\x00\x00'
p4004
tp4005
Rp4006
ag3
(g1215
S'\x00\x00 ?'
p4007
tp4008
Rp4009
aa(lp4010
g3
(g1215
S'\x00\x00\x80?'
p4011
tp4012
Rp4013
ag3
(g1215
S'\x00\x00\x00?'
p4014
tp4015
Rp4016
aasS'train_all_loss'
p4017
(lp4018
(lp4019
g3
(g1215
S'y\x88\x19A'
p4020
tp4021
Rp4022
ag3
(g1215
S'X\x12:?'
p4023
tp4024
Rp4025
aa(lp4026
g3
(g1215
S'\xc8\xa9\x19B'
p4027
tp4028
Rp4029
ag3
(g1215
S'\xdc0g@'
p4030
tp4031
Rp4032
aa(lp4033
g3
(g1215
S'Y\xc4_A'
p4034
tp4035
Rp4036
ag3
(g1215
S'L\x9a\xa88'
p4037
tp4038
Rp4039
aa(lp4040
g3
(g1215
S'\x13l=B'
p4041
tp4042
Rp4043
ag3
(g1215
S'I\x1b\x9e?'
p4044
tp4045
Rp4046
aa(lp4047
g3
(g1215
S'\x12\x149B'
p4048
tp4049
Rp4050
ag3
(g1215
S'\x89\xc5\x177'
p4051
tp4052
Rp4053
aa(lp4054
g3
(g1215
S'\xb1/\x0bB'
p4055
tp4056
Rp4057
ag3
(g1215
S'\xd3-f>'
p4058
tp4059
Rp4060
aa(lp4061
g3
(g1215
S'?\xb7\xc8A'
p4062
tp4063
Rp4064
ag3
(g1215
S'g3.7'
p4065
tp4066
Rp4067
aa(lp4068
g3
(g1215
S'\xe9\x02\xfb@'
p4069
tp4070
Rp4071
ag3
(g1215
S'a\xfa\xd5<'
p4072
tp4073
Rp4074
aa(lp4075
g3
(g1215
S'\x8b\x8e\\B'
p4076
tp4077
Rp4078
ag3
(g1215
S'\x02\xcev?'
p4079
tp4080
Rp4081
aa(lp4082
g3
(g1215
S'\n\xb0`B'
p4083
tp4084
Rp4085
ag3
(g1215
S'\xec\xe1\xe6:'
p4086
tp4087
Rp4088
aa(lp4089
g3
(g1215
S'U\x1eYB'
p4090
tp4091
Rp4092
ag3
(g1215
S'6\xa1H;'
p4093
tp4094
Rp4095
aa(lp4096
g3
(g1215
S'\xb0\xe7JB'
p4097
tp4098
Rp4099
ag3
(g1215
S'\xf7\xb8\x86:'
p4100
tp4101
Rp4102
aa(lp4103
g3
(g1215
S'\x00\x11.B'
p4104
tp4105
Rp4106
ag3
(g1215
S'\xaa\xa9\xc1:'
p4107
tp4108
Rp4109
aa(lp4110
g3
(g1215
S'G\xaa\x1aB'
p4111
tp4112
Rp4113
ag3
(g1215
S'\xa2\xbe\xf59'
p4114
tp4115
Rp4116
aa(lp4117
g3
(g1215
S'h\xdb\xe4A'
p4118
tp4119
Rp4120
ag3
(g1215
S'\x9c\xcb\x82:'
p4121
tp4122
Rp4123
aa(lp4124
g3
(g1215
S'\xfa\xec\xb2A'
p4125
tp4126
Rp4127
ag3
(g1215
S'\xb9\xae^8'
p4128
tp4129
Rp4130
aa(lp4131
g3
(g1215
S'\x12e7A'
p4132
tp4133
Rp4134
ag3
(g1215
S'\xd8\xca\x149'
p4135
tp4136
Rp4137
aa(lp4138
g3
(g1215
S'\x93\xd94B'
p4139
tp4140
Rp4141
ag3
(g1215
S'\x99\xe8\xa4='
p4142
tp4143
Rp4144
aa(lp4145
g3
(g1215
S'\xc0\x1c\x1dB'
p4146
tp4147
Rp4148
ag3
(g1215
S'aQ@?'
p4149
tp4150
Rp4151
aa(lp4152
g3
(g1215
S'\x9fo\xaaA'
p4153
tp4154
Rp4155
ag3
(g1215
S'\x81W\x825'
p4156
tp4157
Rp4158
aa(lp4159
g3
(g1215
S'\x06\x84dB'
p4160
tp4161
Rp4162
ag3
(g1215
S'\x0e\x87\xc7?'
p4163
tp4164
Rp4165
aa(lp4166
g3
(g1215
S'\xe2 `B'
p4167
tp4168
Rp4169
ag3
(g1215
S';\x8ec6'
p4170
tp4171
Rp4172
aa(lp4173
g3
(g1215
S'`CLB'
p4174
tp4175
Rp4176
ag3
(g1215
S'\x01E\xd83'
p4177
tp4178
Rp4179
aa(lp4180
g3
(g1215
S'=\x1c\x1fB'
p4181
tp4182
Rp4183
ag3
(g1215
S'sa\xe8='
p4184
tp4185
Rp4186
aa(lp4187
g3
(g1215
S'\xd5\xe5\x0cB'
p4188
tp4189
Rp4190
ag3
(g1215
S';\x9d\xc64'
p4191
tp4192
Rp4193
aa(lp4194
g3
(g1215
S' B\xb9A'
p4195
tp4196
Rp4197
ag3
(g1215
S'R\x91\xd38'
p4198
tp4199
Rp4200
aa(lp4201
g3
(g1215
S'R-\x14B'
p4202
tp4203
Rp4204
ag3
(g1215
S'1\xfa%>'
p4205
tp4206
Rp4207
aa(lp4208
g3
(g1215
S'\xce"\x04B'
p4209
tp4210
Rp4211
ag3
(g1215
S'"rn1'
p4212
tp4213
Rp4214
aa(lp4215
g3
(g1215
S'\x91\xc8\xc7A'
p4216
tp4217
Rp4218
ag3
(g1215
S'\xcbD\x137'
p4219
tp4220
Rp4221
aa(lp4222
g3
(g1215
S'\xe8l\x8cA'
p4223
tp4224
Rp4225
ag3
(g1215
S'\xe2\x14&5'
p4226
tp4227
Rp4228
aa(lp4229
g3
(g1215
S'jB\xe2A'
p4230
tp4231
Rp4232
ag3
(g1215
S'\xcb\xc8u>'
p4233
tp4234
Rp4235
aa(lp4236
g3
(g1215
S'3\xf5\xdeA'
p4237
tp4238
Rp4239
ag3
(g1215
S'\xba\x9b\xd19'
p4240
tp4241
Rp4242
aa(lp4243
g3
(g1215
S'z\xd2\xc0A'
p4244
tp4245
Rp4246
ag3
(g1215
S'\xba\xe0\x1a9'
p4247
tp4248
Rp4249
aa(lp4250
g3
(g1215
S'\xccz\xa1A'
p4251
tp4252
Rp4253
ag3
(g1215
S'Yz\xc6:'
p4254
tp4255
Rp4256
aa(lp4257
g3
(g1215
S'\xa6\xcbDA'
p4258
tp4259
Rp4260
ag3
(g1215
S'\xbcw\x90<'
p4261
tp4262
Rp4263
aa(lp4264
g3
(g1215
S'\xaaUiB'
p4265
tp4266
Rp4267
ag3
(g1215
S'\xbfq\x13@'
p4268
tp4269
Rp4270
aa(lp4271
g3
(g1215
S'\x86\x0f1B'
p4272
tp4273
Rp4274
ag3
(g1215
S'h\xee\x06A'
p4275
tp4276
Rp4277
aa(lp4278
g3
(g1215
S'\xc4 \xf4A'
p4279
tp4280
Rp4281
ag3
(g1215
S'f\x17\x12.'
p4282
tp4283
Rp4284
aa(lp4285
g3
(g1215
S'\x80\x83\x98A'
p4286
tp4287
Rp4288
ag3
(g1215
S'\x7f\x9ft;'
p4289
tp4290
Rp4291
aa(lp4292
g3
(g1215
S'\xbe\xe7\x19B'
p4293
tp4294
Rp4295
ag3
(g1215
S'\x88k\x8e@'
p4296
tp4297
Rp4298
aa(lp4299
g3
(g1215
S'\xbe\xa2\x15B'
p4300
tp4301
Rp4302
ag3
(g1215
S'v1\x083'
p4303
tp4304
Rp4305
aa(lp4306
g3
(g1215
S'\xf1\x12\x14B'
p4307
tp4308
Rp4309
ag3
(g1215
S'\x14$R3'
p4310
tp4311
Rp4312
aa(lp4313
g3
(g1215
S'gp\xb1A'
p4314
tp4315
Rp4316
ag3
(g1215
S'\xc6\x07J1'
p4317
tp4318
Rp4319
aa(lp4320
g3
(g1215
S'\x9c\xe9\\A'
p4321
tp4322
Rp4323
ag3
(g1215
S'&!\x116'
p4324
tp4325
Rp4326
aa(lp4327
g3
(g1215
S'\x06K\x03B'
p4328
tp4329
Rp4330
ag3
(g1215
S'\x9c\xf7\x8d?'
p4331
tp4332
Rp4333
aa(lp4334
g3
(g1215
S'@\xcc\xedA'
p4335
tp4336
Rp4337
ag3
(g1215
S'\xc6\x91\xd8;'
p4338
tp4339
Rp4340
aa(lp4341
g3
(g1215
S'\xea|\x9bA'
p4342
tp4343
Rp4344
ag3
(g1215
S'r\x98n>'
p4345
tp4346
Rp4347
aa(lp4348
g3
(g1215
S'8\xb9\x93A'
p4349
tp4350
Rp4351
ag3
(g1215
S'\x17\xee\xcc9'
p4352
tp4353
Rp4354
aa(lp4355
g3
(g1215
S'^\x12\x8fA'
p4356
tp4357
Rp4358
ag3
(g1215
S'5\xabB8'
p4359
tp4360
Rp4361
aa(lp4362
g3
(g1215
S'\x8c\x1f&B'
p4363
tp4364
Rp4365
ag3
(g1215
S'\xd39\xd5?'
p4366
tp4367
Rp4368
aa(lp4369
g3
(g1215
S'\xd0\xcb\x01B'
p4370
tp4371
Rp4372
ag3
(g1215
S'#6\xac?'
p4373
tp4374
Rp4375
aa(lp4376
g3
(g1215
S'\xcfxeA'
p4377
tp4378
Rp4379
ag3
(g1215
S'\x9fHb/'
p4380
tp4381
Rp4382
aa(lp4383
g3
(g1215
S'\xeaf\x86A'
p4384
tp4385
Rp4386
ag3
(g1215
S'\x88\xb0Z<'
p4387
tp4388
Rp4389
aa(lp4390
g3
(g1215
S'\xdc\xd5\xf5A'
p4391
tp4392
Rp4393
ag3
(g1215
S'\x93\x0e\x1f@'
p4394
tp4395
Rp4396
aa(lp4397
g3
(g1215
S'\xb6\x17\xb5A'
p4398
tp4399
Rp4400
ag3
(g1215
S'\xa3\xda\xc8:'
p4401
tp4402
Rp4403
aa(lp4404
g3
(g1215
S'J\xd5\xaaA'
p4405
tp4406
Rp4407
ag3
(g1215
S'\xa7{3:'
p4408
tp4409
Rp4410
aa(lp4411
g3
(g1215
S'\xc8\xab\xa0A'
p4412
tp4413
Rp4414
ag3
(g1215
S'\xaeO\xec>'
p4415
tp4416
Rp4417
aa(lp4418
g3
(g1215
S'v\x83\xf6A'
p4419
tp4420
Rp4421
ag3
(g1215
S'f:\x1e@'
p4422
tp4423
Rp4424
aa(lp4425
g3
(g1215
S'\xe4\xe3`A'
p4426
tp4427
Rp4428
ag3
(g1215
S'\xa5\x0f"?'
p4429
tp4430
Rp4431
aa(lp4432
g3
(g1215
S'6b\x92A'
p4433
tp4434
Rp4435
ag3
(g1215
S'\xec\xd0W?'
p4436
tp4437
Rp4438
aa(lp4439
g3
(g1215
S'\x0c\x9dlA'
p4440
tp4441
Rp4442
ag3
(g1215
S'^\x83\xb0;'
p4443
tp4444
Rp4445
aa(lp4446
g3
(g1215
S'\xc2\x1b>A'
p4447
tp4448
Rp4449
ag3
(g1215
S'\xc0\xcb\x84>'
p4450
tp4451
Rp4452
aa(lp4453
g3
(g1215
S'\xd4\xb5\xa4A'
p4454
tp4455
Rp4456
ag3
(g1215
S'\x1c\x00`?'
p4457
tp4458
Rp4459
aa(lp4460
g3
(g1215
S'\xd2E\xadA'
p4461
tp4462
Rp4463
ag3
(g1215
S'\xa9Ar<'
p4464
tp4465
Rp4466
aa(lp4467
g3
(g1215
S'0\x0cXA'
p4468
tp4469
Rp4470
ag3
(g1215
S'\xf7\x03\x12?'
p4471
tp4472
Rp4473
aa(lp4474
g3
(g1215
S'\xb2\x17\xb5A'
p4475
tp4476
Rp4477
ag3
(g1215
S'&\xac\xd1?'
p4478
tp4479
Rp4480
aa(lp4481
g3
(g1215
S'\x8afLA'
p4482
tp4483
Rp4484
ag3
(g1215
S'\x1aBD?'
p4485
tp4486
Rp4487
aa(lp4488
g3
(g1215
S'0n\x9aA'
p4489
tp4490
Rp4491
ag3
(g1215
S'\x13\xd8,?'
p4492
tp4493
Rp4494
aa(lp4495
g3
(g1215
S'\x14yNA'
p4496
tp4497
Rp4498
ag3
(g1215
S'\xb2\xcaE?'
p4499
tp4500
Rp4501
aa(lp4502
g3
(g1215
S"b\xec'A"
p4503
tp4504
Rp4505
ag3
(g1215
S'\x08\x9a\xa9>'
p4506
tp4507
Rp4508
aa(lp4509
g3
(g1215
S'\x88H\xe0@'
p4510
tp4511
Rp4512
ag3
(g1215
S'\xfe\xfe\x00<'
p4513
tp4514
Rp4515
aa(lp4516
g3
(g1215
S'P\xdd\xe5A'
p4517
tp4518
Rp4519
ag3
(g1215
S'?\x95\x9b?'
p4520
tp4521
Rp4522
aa(lp4523
g3
(g1215
S'\x9e\x05?@'
p4524
tp4525
Rp4526
ag3
(g1215
S'WU\xf8@'
p4527
tp4528
Rp4529
aa(lp4530
g3
(g1215
S'\xc2\xc9\x8cA'
p4531
tp4532
Rp4533
ag3
(g1215
S':\x1c\xc7?'
p4534
tp4535
Rp4536
aa(lp4537
g3
(g1215
S'\x14o=A'
p4538
tp4539
Rp4540
ag3
(g1215
S'"\x90H>'
p4541
tp4542
Rp4543
aa(lp4544
g3
(g1215
S'\xc9\xbaFA'
p4545
tp4546
Rp4547
ag3
(g1215
S'\xf2\x9bb?'
p4548
tp4549
Rp4550
aa(lp4551
g3
(g1215
S'\xab[\xfe@'
p4552
tp4553
Rp4554
ag3
(g1215
S'{z/='
p4555
tp4556
Rp4557
aa(lp4558
g3
(g1215
S'\x006\x01A'
p4559
tp4560
Rp4561
ag3
(g1215
S'Q\x08>>'
p4562
tp4563
Rp4564
aa(lp4565
g3
(g1215
S':\x14\xa4A'
p4566
tp4567
Rp4568
ag3
(g1215
S'Hgy?'
p4569
tp4570
Rp4571
aa(lp4572
g3
(g1215
S'\xd1\xb5\x06A'
p4573
tp4574
Rp4575
ag3
(g1215
S'\x87&O@'
p4576
tp4577
Rp4578
aa(lp4579
g3
(g1215
S'hc\x0cA'
p4580
tp4581
Rp4582
ag3
(g1215
S'g\x0f\xc7?'
p4583
tp4584
Rp4585
aa(lp4586
g3
(g1215
S'H\x01\xe9@'
p4587
tp4588
Rp4589
ag3
(g1215
S'\xdc\xc3K<'
p4590
tp4591
Rp4592
aa(lp4593
g3
(g1215
S'`\x928A'
p4594
tp4595
Rp4596
ag3
(g1215
S'\x11\xc4&='
p4597
tp4598
Rp4599
aa(lp4600
g3
(g1215
S'\xe5w9A'
p4601
tp4602
Rp4603
ag3
(g1215
S'\x9c\xdaP>'
p4604
tp4605
Rp4606
aa(lp4607
g3
(g1215
S'=\xa75A'
p4608
tp4609
Rp4610
ag3
(g1215
S'\x8f\x9b\x8d;'
p4611
tp4612
Rp4613
aa(lp4614
g3
(g1215
S'z\x81"@'
p4615
tp4616
Rp4617
ag3
(g1215
S'I\xf2\xc4>'
p4618
tp4619
Rp4620
aa(lp4621
g3
(g1215
S'(k\xb5A'
p4622
tp4623
Rp4624
ag3
(g1215
S'<\x19.@'
p4625
tp4626
Rp4627
aa(lp4628
g3
(g1215
S'\xb8\xaf\x13A'
p4629
tp4630
Rp4631
ag3
(g1215
S'\xa9F\xa3@'
p4632
tp4633
Rp4634
aa(lp4635
g3
(g1215
S'!\x1ev@'
p4636
tp4637
Rp4638
ag3
(g1215
S'\xe4\xc7\x12<'
p4639
tp4640
Rp4641
aa(lp4642
g3
(g1215
S'\xc4\xa5\x1dA'
p4643
tp4644
Rp4645
ag3
(g1215
S'Bm\xa8>'
p4646
tp4647
Rp4648
aa(lp4649
g3
(g1215
S'\x82\xeb\x0e@'
p4650
tp4651
Rp4652
ag3
(g1215
S'\x1c\xae\xc3?'
p4653
tp4654
Rp4655
aa(lp4656
g3
(g1215
S'\x1ah\xabA'
p4657
tp4658
Rp4659
ag3
(g1215
S'\xd28\x80@'
p4660
tp4661
Rp4662
aa(lp4663
g3
(g1215
S'\xa6\x17\xc4@'
p4664
tp4665
Rp4666
ag3
(g1215
S'\x9e\xa3Z@'
p4667
tp4668
Rp4669
aa(lp4670
g3
(g1215
S'c\xb0\xc2@'
p4671
tp4672
Rp4673
ag3
(g1215
S'\x16h\xe3>'
p4674
tp4675
Rp4676
aa(lp4677
g3
(g1215
S'f\x89\x0bA'
p4678
tp4679
Rp4680
ag3
(g1215
S'5H\x9d>'
p4681
tp4682
Rp4683
aa(lp4684
g3
(g1215
S'\xd2y\x91@'
p4685
tp4686
Rp4687
ag3
(g1215
S'#P\xa4>'
p4688
tp4689
Rp4690
aa(lp4691
g3
(g1215
S'\x91\x7f\x98@'
p4692
tp4693
Rp4694
ag3
(g1215
S'tUk<'
p4695
tp4696
Rp4697
aa(lp4698
g3
(g1215
S'\xd29\x07A'
p4699
tp4700
Rp4701
ag3
(g1215
S'\xcc\xcfr='
p4702
tp4703
Rp4704
aa(lp4705
g3
(g1215
S'&5<A'
p4706
tp4707
Rp4708
ag3
(g1215
S'\x85\xb2\xc9>'
p4709
tp4710
Rp4711
aa(lp4712
g3
(g1215
S'(\x15\n?'
p4713
tp4714
Rp4715
ag3
(g1215
S'\xc0\x96\x9d?'
p4716
tp4717
Rp4718
aa(lp4719
g3
(g1215
S'wt\xff?'
p4720
tp4721
Rp4722
ag3
(g1215
S'\x02\xc6\\>'
p4723
tp4724
Rp4725
aa(lp4726
g3
(g1215
S'\x80\xac\x83A'
p4727
tp4728
Rp4729
ag3
(g1215
S'40\xe9?'
p4730
tp4731
Rp4732
aa(lp4733
g3
(g1215
S'\x91\xda\xcd@'
p4734
tp4735
Rp4736
ag3
(g1215
S'\x89\x10P@'
p4737
tp4738
Rp4739
aa(lp4740
g3
(g1215
S'\x14\xb6\xfd?'
p4741
tp4742
Rp4743
ag3
(g1215
S'\xd0\xb7\x16='
p4744
tp4745
Rp4746
aa(lp4747
g3
(g1215
S'T\x06bA'
p4748
tp4749
Rp4750
ag3
(g1215
S'\xff\x92A?'
p4751
tp4752
Rp4753
aa(lp4754
g3
(g1215
S'vx\x96@'
p4755
tp4756
Rp4757
ag3
(g1215
S'\xb6z\x1a?'
p4758
tp4759
Rp4760
aa(lp4761
g3
(g1215
S'\x99k]@'
p4762
tp4763
Rp4764
ag3
(g1215
S'"m\'<'
p4765
tp4766
Rp4767
aa(lp4768
g3
(g1215
S'\xaa=\tA'
p4769
tp4770
Rp4771
ag3
(g1215
S'7\xb4n>'
p4772
tp4773
Rp4774
aa(lp4775
g3
(g1215
S'R\xe0\xc5@'
p4776
tp4777
Rp4778
ag3
(g1215
S'\x9e\xfd0='
p4779
tp4780
Rp4781
aa(lp4782
g3
(g1215
S'QQh@'
p4783
tp4784
Rp4785
ag3
(g1215
S'\x93\xfe1='
p4786
tp4787
Rp4788
aa(lp4789
g3
(g1215
S'\x04l\x9f@'
p4790
tp4791
Rp4792
ag3
(g1215
S'L\xbc^='
p4793
tp4794
Rp4795
aa(lp4796
g3
(g1215
S'\x83\x82,A'
p4797
tp4798
Rp4799
ag3
(g1215
S'\xcej\xc3>'
p4800
tp4801
Rp4802
aa(lp4803
g3
(g1215
S'\xd1\xde\xff?'
p4804
tp4805
Rp4806
ag3
(g1215
S'\x9c\xa3\x96?'
p4807
tp4808
Rp4809
aa(lp4810
g3
(g1215
S'Q@2A'
p4811
tp4812
Rp4813
ag3
(g1215
S'm\xaa\x9a?'
p4814
tp4815
Rp4816
aa(lp4817
g3
(g1215
S'\x99u\x0c@'
p4818
tp4819
Rp4820
ag3
(g1215
S'\xd5|\xc1?'
p4821
tp4822
Rp4823
aa(lp4824
g3
(g1215
S'D\xc6O@'
p4825
tp4826
Rp4827
ag3
(g1215
S'\xce\xef:>'
p4828
tp4829
Rp4830
aa(lp4831
g3
(g1215
S'2\xeb1A'
p4832
tp4833
Rp4834
ag3
(g1215
S'\x02\xf8\xb6>'
p4835
tp4836
Rp4837
aa(lp4838
g3
(g1215
S'\x13\xc2a@'
p4839
tp4840
Rp4841
ag3
(g1215
S'\xf8j\x96>'
p4842
tp4843
Rp4844
aa(lp4845
g3
(g1215
S'\xb8\xe9\x0f@'
p4846
tp4847
Rp4848
ag3
(g1215
S'$\xbc\xbb<'
p4849
tp4850
Rp4851
aa(lp4852
g3
(g1215
S'PjtA'
p4853
tp4854
Rp4855
ag3
(g1215
S'4\rN?'
p4856
tp4857
Rp4858
aa(lp4859
g3
(g1215
S'\x029\x92@'
p4860
tp4861
Rp4862
ag3
(g1215
S'\x104\xa3?'
p4863
tp4864
Rp4865
aa(lp4866
g3
(g1215
S'n=\x0c@'
p4867
tp4868
Rp4869
ag3
(g1215
S'Oh\xf3;'
p4870
tp4871
Rp4872
aa(lp4873
g3
(g1215
S'Z-PA'
p4874
tp4875
Rp4876
ag3
(g1215
S'\xcb\x93\x9f?'
p4877
tp4878
Rp4879
aa(lp4880
g3
(g1215
S'p\x99\x07?'
p4881
tp4882
Rp4883
ag3
(g1215
S'T8C@'
p4884
tp4885
Rp4886
aa(lp4887
g3
(g1215
S' @\xfa@'
p4888
tp4889
Rp4890
ag3
(g1215
S'\x97\xb9\x01?'
p4891
tp4892
Rp4893
aa(lp4894
g3
(g1215
S'\x08_\\;'
p4895
tp4896
Rp4897
ag3
(g1215
S'F\x81\xb0?'
p4898
tp4899
Rp4900
aa(lp4901
g3
(g1215
S'\xf9u\x8b@'
p4902
tp4903
Rp4904
ag3
(g1215
S'\xed\xbd_@'
p4905
tp4906
Rp4907
aa(lp4908
g3
(g1215
S'\xe0\xc6\xb8@'
p4909
tp4910
Rp4911
ag3
(g1215
S'\xe84\xbd='
p4912
tp4913
Rp4914
aa(lp4915
g3
(g1215
S'2\x99\x1c?'
p4916
tp4917
Rp4918
ag3
(g1215
S'\x9f*V?'
p4919
tp4920
Rp4921
aa(lp4922
g3
(g1215
S'OQ\x14A'
p4923
tp4924
Rp4925
ag3
(g1215
S'4J\x8e?'
p4926
tp4927
Rp4928
aa(lp4929
g3
(g1215
S'+`\xc6>'
p4930
tp4931
Rp4932
ag3
(g1215
S'\x96\xdf\xa4?'
p4933
tp4934
Rp4935
aa(lp4936
g3
(g1215
S'\x99d|@'
p4937
tp4938
Rp4939
ag3
(g1215
S'I\xe1\xf4>'
p4940
tp4941
Rp4942
aa(lp4943
g3
(g1215
S'n\xa1\xaf@'
p4944
tp4945
Rp4946
ag3
(g1215
S'4\t\xe6<'
p4947
tp4948
Rp4949
aa(lp4950
g3
(g1215
S'\x94_\xed@'
p4951
tp4952
Rp4953
ag3
(g1215
S'T\xdeQ>'
p4954
tp4955
Rp4956
aa(lp4957
g3
(g1215
S'\x16\n\xd2?'
p4958
tp4959
Rp4960
ag3
(g1215
S'\xc9\xff\xf1>'
p4961
tp4962
Rp4963
aa(lp4964
g3
(g1215
S'\xd7e\x0eA'
p4965
tp4966
Rp4967
ag3
(g1215
S'N&\x1c?'
p4968
tp4969
Rp4970
aa(lp4971
g3
(g1215
S'\xd20\x10@'
p4972
tp4973
Rp4974
ag3
(g1215
S']\xe4\n?'
p4975
tp4976
Rp4977
aa(lp4978
g3
(g1215
S'@9<A'
p4979
tp4980
Rp4981
ag3
(g1215
S'\x80\xdd&?'
p4982
tp4983
Rp4984
aa(lp4985
g3
(g1215
S'\xa6P\xe5?'
p4986
tp4987
Rp4988
ag3
(g1215
S'\xcfw.?'
p4989
tp4990
Rp4991
aa(lp4992
g3
(g1215
S'\xcf\xd6\x91@'
p4993
tp4994
Rp4995
ag3
(g1215
S'\x9a6i>'
p4996
tp4997
Rp4998
aa(lp4999
g3
(g1215
S'\x88\xa9\xce@'
p5000
tp5001
Rp5002
ag3
(g1215
S'\t\xf5\x87>'
p5003
tp5004
Rp5005
aa(lp5006
g3
(g1215
S'\xc2\xf9\xc4@'
p5007
tp5008
Rp5009
ag3
(g1215
S'k\x05\xb7>'
p5010
tp5011
Rp5012
aa(lp5013
g3
(g1215
S'\xe3\xf4#@'
p5014
tp5015
Rp5016
ag3
(g1215
S'\x83\x81\x96='
p5017
tp5018
Rp5019
aa(lp5020
g3
(g1215
S'\xd0!o@'
p5021
tp5022
Rp5023
ag3
(g1215
S'{"\x1d>'
p5024
tp5025
Rp5026
aa(lp5027
g3
(g1215
S'4\xb8\xbd@'
p5028
tp5029
Rp5030
ag3
(g1215
S'@\xe8^='
p5031
tp5032
Rp5033
aa(lp5034
g3
(g1215
S'\xbe}\xb3@'
p5035
tp5036
Rp5037
ag3
(g1215
S'_Ed='
p5038
tp5039
Rp5040
aa(lp5041
g3
(g1215
S'\xe0\xabO@'
p5042
tp5043
Rp5044
ag3
(g1215
S'=H\x92='
p5045
tp5046
Rp5047
aa(lp5048
g3
(g1215
S'\x12\x8bTA'
p5049
tp5050
Rp5051
ag3
(g1215
S'\xfa\xdd\xba>'
p5052
tp5053
Rp5054
aa(lp5055
g3
(g1215
S'\xed\x8a\x91>'
p5056
tp5057
Rp5058
ag3
(g1215
S'\xb1+\x8d?'
p5059
tp5060
Rp5061
aa(lp5062
g3
(g1215
S'\xf1\xc5v@'
p5063
tp5064
Rp5065
ag3
(g1215
S'\x1dR\xc9>'
p5066
tp5067
Rp5068
aa(lp5069
g3
(g1215
S'h!"A'
p5070
tp5071
Rp5072
ag3
(g1215
S'\x02\x18\xdd>'
p5073
tp5074
Rp5075
aa(lp5076
g3
(g1215
S'h\x15\xdb>'
p5077
tp5078
Rp5079
ag3
(g1215
S'y\xbc\xa9?'
p5080
tp5081
Rp5082
aa(lp5083
g3
(g1215
S'\xe8\xc67A'
p5084
tp5085
Rp5086
ag3
(g1215
S'5\xc8\xc2?'
p5087
tp5088
Rp5089
aa(lp5090
g3
(g1215
S'I\xc7\x8c?'
p5091
tp5092
Rp5093
ag3
(g1215
S'2(\xe4?'
p5094
tp5095
Rp5096
aa(lp5097
g3
(g1215
S'\xe4\xc3\x16A'
p5098
tp5099
Rp5100
ag3
(g1215
S'\xe0k\xe5?'
p5101
tp5102
Rp5103
aa(lp5104
g3
(g1215
S'\xc5\xf2\x01@'
p5105
tp5106
Rp5107
ag3
(g1215
S'M\xdfQ?'
p5108
tp5109
Rp5110
aa(lp5111
g3
(g1215
S"L\x15'A"
p5112
tp5113
Rp5114
ag3
(g1215
S'\r~\xd7?'
p5115
tp5116
Rp5117
aa(lp5118
g3
(g1215
S'\xadI\x8d?'
p5119
tp5120
Rp5121
ag3
(g1215
S'\xb9$x?'
p5122
tp5123
Rp5124
aa(lp5125
g3
(g1215
S'\x92$QA'
p5126
tp5127
Rp5128
ag3
(g1215
S'\x10\x19\xc6?'
p5129
tp5130
Rp5131
aa(lp5132
g3
(g1215
S'\xc2\xeb\t@'
p5133
tp5134
Rp5135
ag3
(g1215
S'\xbb\xef\xf1?'
p5136
tp5137
Rp5138
aa(lp5139
g3
(g1215
S'\xb8Q\xac@'
p5140
tp5141
Rp5142
ag3
(g1215
S'\xe0G&?'
p5143
tp5144
Rp5145
aa(lp5146
g3
(g1215
S'\xf6\x1e\x15A'
p5147
tp5148
Rp5149
ag3
(g1215
S'\xb0\xaa\x96>'
p5150
tp5151
Rp5152
aa(lp5153
g3
(g1215
S'\xb1\xbf\xa3>'
p5154
tp5155
Rp5156
ag3
(g1215
S'\x9d\x02\xa7?'
p5157
tp5158
Rp5159
aa(lp5160
g3
(g1215
S'\xdan&A'
p5161
tp5162
Rp5163
ag3
(g1215
S't\xabs?'
p5164
tp5165
Rp5166
aa(lp5167
g3
(g1215
S'9\xbcs@'
p5168
tp5169
Rp5170
ag3
(g1215
S'\xc2\xe8\xc2>'
p5171
tp5172
Rp5173
aa(lp5174
g3
(g1215
S'\xeb\x91\r@'
p5175
tp5176
Rp5177
ag3
(g1215
S'\x89\x9e\xb8='
p5178
tp5179
Rp5180
aa(lp5181
g3
(g1215
S'\xd4\x81$A'
p5182
tp5183
Rp5184
ag3
(g1215
S'\xc5O\xad>'
p5185
tp5186
Rp5187
aa(lp5188
g3
(g1215
S'\x95\xe5N?'
p5189
tp5190
Rp5191
ag3
(g1215
S'Bx\x88?'
p5192
tp5193
Rp5194
aa(lp5195
g3
(g1215
S'~\xf8*A'
p5196
tp5197
Rp5198
ag3
(g1215
S'\xb3\xe0\xcb?'
p5199
tp5200
Rp5201
aa(lp5202
g3
(g1215
S'&FK@'
p5203
tp5204
Rp5205
ag3
(g1215
S'\x0b\xbcP?'
p5206
tp5207
Rp5208
aa(lp5209
g3
(g1215
S'2\x01\x14@'
p5210
tp5211
Rp5212
ag3
(g1215
S'i\xb11='
p5213
tp5214
Rp5215
aa(lp5216
g3
(g1215
S'*\x95\xc5@'
p5217
tp5218
Rp5219
ag3
(g1215
S'\xdfZ\x93>'
p5220
tp5221
Rp5222
aa(lp5223
g3
(g1215
S'9\xe7m@'
p5224
tp5225
Rp5226
ag3
(g1215
S'\x9f8\xb4='
p5227
tp5228
Rp5229
aa(lp5230
g3
(g1215
S'\xc4ak@'
p5231
tp5232
Rp5233
ag3
(g1215
S'|\x1f\xa6='
p5234
tp5235
Rp5236
aa(lp5237
g3
(g1215
S'\xa0\xb8\x96@'
p5238
tp5239
Rp5240
ag3
(g1215
S'\xd4\x9a3>'
p5241
tp5242
Rp5243
aa(lp5244
g3
(g1215
S'\x1c\xd0\x04?'
p5245
tp5246
Rp5247
ag3
(g1215
S'8\xa5\x17?'
p5248
tp5249
Rp5250
aa(lp5251
g3
(g1215
S'C\x93?A'
p5252
tp5253
Rp5254
ag3
(g1215
S':a`?'
p5255
tp5256
Rp5257
aa(lp5258
g3
(g1215
S'i\x90\xa9?'
p5259
tp5260
Rp5261
ag3
(g1215
S'\xa1\xa3\xb4?'
p5262
tp5263
Rp5264
aa(lp5265
g3
(g1215
S'\xffU\xe4@'
p5266
tp5267
Rp5268
ag3
(g1215
S'w?\xc3>'
p5269
tp5270
Rp5271
aa(lp5272
g3
(g1215
S'\xdc\xd6\xc3@'
p5273
tp5274
Rp5275
ag3
(g1215
S'\x88\xf4#='
p5276
tp5277
Rp5278
aa(lp5279
g3
(g1215
S'\xdb\xe8L?'
p5280
tp5281
Rp5282
ag3
(g1215
S'<\\R>'
p5283
tp5284
Rp5285
aa(lp5286
g3
(g1215
S'?t\x11A'
p5287
tp5288
Rp5289
ag3
(g1215
S'\xe8L\x07?'
p5290
tp5291
Rp5292
aa(lp5293
g3
(g1215
S'I\x1f\xb7@'
p5294
tp5295
Rp5296
ag3
(g1215
S'\xe0\xf0\xd1>'
p5297
tp5298
Rp5299
aa(lp5300
g3
(g1215
S'\x02\xbfv@'
p5301
tp5302
Rp5303
ag3
(g1215
S'\x10\x95t='
p5304
tp5305
Rp5306
aa(lp5307
g3
(g1215
S'\xea2x@'
p5308
tp5309
Rp5310
ag3
(g1215
S'\x1d\xdcQ='
p5311
tp5312
Rp5313
aa(lp5314
g3
(g1215
S'\xaf\xbcm@'
p5315
tp5316
Rp5317
ag3
(g1215
S'\xb1\x90.='
p5318
tp5319
Rp5320
aa(lp5321
g3
(g1215
S'\x8a\x84\xdb@'
p5322
tp5323
Rp5324
ag3
(g1215
S'\x06GA>'
p5325
tp5326
Rp5327
aa(lp5328
g3
(g1215
S'\x8fe\x0b@'
p5329
tp5330
Rp5331
ag3
(g1215
S'K)\xa8>'
p5332
tp5333
Rp5334
aa(lp5335
g3
(g1215
S'\xf4\xab\xbb@'
p5336
tp5337
Rp5338
ag3
(g1215
S'\xb6\xd4;>'
p5339
tp5340
Rp5341
aa(lp5342
g3
(g1215
S't\xea\xb0@'
p5343
tp5344
Rp5345
ag3
(g1215
S'=l\xd7='
p5346
tp5347
Rp5348
aa(lp5349
g3
(g1215
S'N?\x98@'
p5350
tp5351
Rp5352
ag3
(g1215
S'\xddq\x08>'
p5353
tp5354
Rp5355
aa(lp5356
g3
(g1215
S'+@\xa2@'
p5357
tp5358
Rp5359
ag3
(g1215
S'&\xf5a>'
p5360
tp5361
Rp5362
aa(lp5363
g3
(g1215
S'\xd6\x90n@'
p5364
tp5365
Rp5366
ag3
(g1215
S'\x8bY\x8b='
p5367
tp5368
Rp5369
aa(lp5370
g3
(g1215
S'z\x85`@'
p5371
tp5372
Rp5373
ag3
(g1215
S'W\xfa\xc4='
p5374
tp5375
Rp5376
aa(lp5377
g3
(g1215
S'@S\xdd@'
p5378
tp5379
Rp5380
ag3
(g1215
S'\x14;\\>'
p5381
tp5382
Rp5383
aa(lp5384
g3
(g1215
S'\xe3d\x18@'
p5385
tp5386
Rp5387
ag3
(g1215
S'\x88\x18\xb2>'
p5388
tp5389
Rp5390
aa(lp5391
g3
(g1215
S'\xd2\t\\A'
p5392
tp5393
Rp5394
ag3
(g1215
S'\xc0\x13E?'
p5395
tp5396
Rp5397
aa(lp5398
g3
(g1215
S'\xb4\xa3C@'
p5399
tp5400
Rp5401
ag3
(g1215
S'\xb6-\xcd?'
p5402
tp5403
Rp5404
aa(lp5405
g3
(g1215
S'\x8e\xa9\x90@'
p5406
tp5407
Rp5408
ag3
(g1215
S'|\xf5{>'
p5409
tp5410
Rp5411
aa(lp5412
g3
(g1215
S'\xf4_\xba@'
p5413
tp5414
Rp5415
ag3
(g1215
S'\xec\x9b\xa7<'
p5416
tp5417
Rp5418
aa(lp5419
g3
(g1215
S'\xf0|\xff@'
p5420
tp5421
Rp5422
ag3
(g1215
S'!\x7f\x1f>'
p5423
tp5424
Rp5425
aa(lp5426
g3
(g1215
S'\x1c_\xa9@'
p5427
tp5428
Rp5429
ag3
(g1215
S'\xbf\xdb\xe3='
p5430
tp5431
Rp5432
aa(lp5433
g3
(g1215
S'\x0f;\x86@'
p5434
tp5435
Rp5436
ag3
(g1215
S'\x0c@\xbf='
p5437
tp5438
Rp5439
aa(lp5440
g3
(g1215
S'\x18\xe4\xeb@'
p5441
tp5442
Rp5443
ag3
(g1215
S';\x92f>'
p5444
tp5445
Rp5446
aa(lp5447
g3
(g1215
S'u\xe6\x0f@'
p5448
tp5449
Rp5450
ag3
(g1215
S'\xc1\xe4F>'
p5451
tp5452
Rp5453
aa(lp5454
g3
(g1215
S'\xd5[\rA'
p5455
tp5456
Rp5457
ag3
(g1215
S'\xd2\xca\xcf>'
p5458
tp5459
Rp5460
aa(lp5461
g3
(g1215
S'\x16\xbc\xe4@'
p5462
tp5463
Rp5464
ag3
(g1215
S'\x8f\xe3Z>'
p5465
tp5466
Rp5467
aa(lp5468
g3
(g1215
S'\x1b\xfa\x8e?'
p5469
tp5470
Rp5471
ag3
(g1215
S')hP>'
p5472
tp5473
Rp5474
aa(lp5475
g3
(g1215
S'L\xa1[A'
p5476
tp5477
Rp5478
ag3
(g1215
S'\xc6xi?'
p5479
tp5480
Rp5481
aa(lp5482
g3
(g1215
S'\xc3a\xb7@'
p5483
tp5484
Rp5485
ag3
(g1215
S'\xba\x1e\x98?'
p5486
tp5487
Rp5488
aa(lp5489
g3
(g1215
S'\xde\\\xa9?'
p5490
tp5491
Rp5492
ag3
(g1215
S'zc\xad<'
p5493
tp5494
Rp5495
aa(lp5496
g3
(g1215
S'\xe4&\x1cA'
p5497
tp5498
Rp5499
ag3
(g1215
S'\xde\x1b-?'
p5500
tp5501
Rp5502
aa(lp5503
g3
(g1215
S'\xe65\x1f@'
p5504
tp5505
Rp5506
ag3
(g1215
S'r_$?'
p5507
tp5508
Rp5509
aa(lp5510
g3
(g1215
S'\x98\x9a\x18A'
p5511
tp5512
Rp5513
ag3
(g1215
S'\xe9!\xd2>'
p5514
tp5515
Rp5516
aa(lp5517
g3
(g1215
S'\xf0\xda\xd1@'
p5518
tp5519
Rp5520
ag3
(g1215
S'\x95\x97\xe0='
p5521
tp5522
Rp5523
aa(lp5524
g3
(g1215
S'\xda\xbd\x8f@'
p5525
tp5526
Rp5527
ag3
(g1215
S'a\x05\xcf<'
p5528
tp5529
Rp5530
aa(lp5531
g3
(g1215
S';\xd0\xba@'
p5532
tp5533
Rp5534
ag3
(g1215
S'\x91\xac\x87>'
p5535
tp5536
Rp5537
aa(lp5538
g3
(g1215
S'\x06i\xba@'
p5539
tp5540
Rp5541
ag3
(g1215
S'~\xebP>'
p5542
tp5543
Rp5544
aa(lp5545
g3
(g1215
S'U\x9d\xf2@'
p5546
tp5547
Rp5548
ag3
(g1215
S'\xe0\xc5\xd9>'
p5549
tp5550
Rp5551
aa(lp5552
g3
(g1215
S'\xa0\xa1\x95>'
p5553
tp5554
Rp5555
ag3
(g1215
S'\xbex\x90?'
p5556
tp5557
Rp5558
aa(lp5559
g3
(g1215
S'Z\xd0FA'
p5560
tp5561
Rp5562
ag3
(g1215
S'Z\xe3G?'
p5563
tp5564
Rp5565
aa(lp5566
g3
(g1215
S'\xd1]\xe5='
p5567
tp5568
Rp5569
ag3
(g1215
S'\xf4\xc0\x00@'
p5570
tp5571
Rp5572
aa(lp5573
g3
(g1215
S'\xf0\xa5@A'
p5574
tp5575
Rp5576
ag3
(g1215
S'x\x9c\x05@'
p5577
tp5578
Rp5579
aa(lp5580
g3
(g1215
S'1\x18`@'
p5581
tp5582
Rp5583
ag3
(g1215
S'U\x03\xf1>'
p5584
tp5585
Rp5586
aa(lp5587
g3
(g1215
S'\x84\xa5\x07A'
p5588
tp5589
Rp5590
ag3
(g1215
S'\xc5\xc6\xa9>'
p5591
tp5592
Rp5593
aa(lp5594
g3
(g1215
S'\x81.\xeb@'
p5595
tp5596
Rp5597
ag3
(g1215
S'b\xcd\x90='
p5598
tp5599
Rp5600
aa(lp5601
g3
(g1215
S'\x98EL@'
p5602
tp5603
Rp5604
ag3
(g1215
S'\xac\xe7\x10>'
p5605
tp5606
Rp5607
aa(lp5608
g3
(g1215
S'\x1f\x91\x9e@'
p5609
tp5610
Rp5611
ag3
(g1215
S'qK\x06>'
p5612
tp5613
Rp5614
aa(lp5615
g3
(g1215
S'\x98?>@'
p5616
tp5617
Rp5618
ag3
(g1215
S'&;\x12>'
p5619
tp5620
Rp5621
aa(lp5622
g3
(g1215
S'\xb3\x03]A'
p5623
tp5624
Rp5625
ag3
(g1215
S'\x1c79?'
p5626
tp5627
Rp5628
aa(lp5629
g3
(g1215
S'[aR>'
p5630
tp5631
Rp5632
ag3
(g1215
S'`\xacd@'
p5633
tp5634
Rp5635
aa(lp5636
g3
(g1215
S'\xe4\xdb\xdb@'
p5637
tp5638
Rp5639
ag3
(g1215
S'qLB?'
p5640
tp5641
Rp5642
aa(lp5643
g3
(g1215
S'|b\xc5@'
p5644
tp5645
Rp5646
ag3
(g1215
S'\xde\xbc\x91<'
p5647
tp5648
Rp5649
aa(lp5650
g3
(g1215
S'\xbfOP@'
p5651
tp5652
Rp5653
ag3
(g1215
S'C,q='
p5654
tp5655
Rp5656
aa(lp5657
g3
(g1215
S'\xf8D\x9e@'
p5658
tp5659
Rp5660
ag3
(g1215
S'\xb3A\xb0>'
p5661
tp5662
Rp5663
aa(lp5664
g3
(g1215
S'\xeew\x89@'
p5665
tp5666
Rp5667
ag3
(g1215
S'L\xadB>'
p5668
tp5669
Rp5670
aa(lp5671
g3
(g1215
S'\xf3u/@'
p5672
tp5673
Rp5674
ag3
(g1215
S'\x06\xceb>'
p5675
tp5676
Rp5677
aa(lp5678
g3
(g1215
S'\x96o@?'
p5679
tp5680
Rp5681
ag3
(g1215
S'\xa2C$>'
p5682
tp5683
Rp5684
aa(lp5685
g3
(g1215
S'zdLA'
p5686
tp5687
Rp5688
ag3
(g1215
S'F\xc2"?'
p5689
tp5690
Rp5691
aa(lp5692
g3
(g1215
S'\xd2\xfa\x8d@'
p5693
tp5694
Rp5695
ag3
(g1215
S':0\xfe>'
p5696
tp5697
Rp5698
aa(lp5699
g3
(g1215
S'b\x1a\x94@'
p5700
tp5701
Rp5702
ag3
(g1215
S' H\xdf='
p5703
tp5704
Rp5705
aa(lp5706
g3
(g1215
S'\x801\x96@'
p5707
tp5708
Rp5709
ag3
(g1215
S'N\x08\x84='
p5710
tp5711
Rp5712
aa(lp5713
g3
(g1215
S'\x80Y\xba@'
p5714
tp5715
Rp5716
ag3
(g1215
S'\xcb\xbbt>'
p5717
tp5718
Rp5719
aa(lp5720
g3
(g1215
S'\x99\x84s@'
p5721
tp5722
Rp5723
ag3
(g1215
S'\xa92U>'
p5724
tp5725
Rp5726
aa(lp5727
g3
(g1215
S':\xd6\xd4@'
p5728
tp5729
Rp5730
ag3
(g1215
S'\xc3\x91">'
p5731
tp5732
Rp5733
aa(lp5734
g3
(g1215
S'\xb4|O?'
p5735
tp5736
Rp5737
ag3
(g1215
S'\xfe\xad\x81>'
p5738
tp5739
Rp5740
aa(lp5741
g3
(g1215
S'\xd0\x08\xf9@'
p5742
tp5743
Rp5744
ag3
(g1215
S'y}\x98>'
p5745
tp5746
Rp5747
aa(lp5748
g3
(g1215
S'*\xb1o>'
p5749
tp5750
Rp5751
ag3
(g1215
S'\xd9\xcbt?'
p5752
tp5753
Rp5754
aa(lp5755
g3
(g1215
S'\xfa\x0fLA'
p5756
tp5757
Rp5758
ag3
(g1215
S'\xf8n\x11@'
p5759
tp5760
Rp5761
aa(lp5762
g3
(g1215
S'\x17/\x1a@'
p5763
tp5764
Rp5765
ag3
(g1215
S'\x10\x80\xca?'
p5766
tp5767
Rp5768
aa(lp5769
g3
(g1215
S'\xa5\xfc\x8f@'
p5770
tp5771
Rp5772
ag3
(g1215
S'\xfdjZ>'
p5773
tp5774
Rp5775
aa(lp5776
g3
(g1215
S'\x0c?\x00A'
p5777
tp5778
Rp5779
ag3
(g1215
S'bPu>'
p5780
tp5781
Rp5782
aa(lp5783
g3
(g1215
S'\xce\x13\xf8>'
p5784
tp5785
Rp5786
ag3
(g1215
S'O:>?'
p5787
tp5788
Rp5789
aa(lp5790
g3
(g1215
S's\x81(A'
p5791
tp5792
Rp5793
ag3
(g1215
S'\xfdd\x89?'
p5794
tp5795
Rp5796
aa(lp5797
g3
(g1215
S'\xaa\xfd\xa6@'
p5798
tp5799
Rp5800
ag3
(g1215
S'e\xc2m?'
p5801
tp5802
Rp5803
aa(lp5804
g3
(g1215
S'O\xab\x81@'
p5805
tp5806
Rp5807
ag3
(g1215
S',\xa5\xb5='
p5808
tp5809
Rp5810
aa(lp5811
g3
(g1215
S'?\xc0\xd6@'
p5812
tp5813
Rp5814
ag3
(g1215
S'\xfa\x94\x80>'
p5815
tp5816
Rp5817
aa(lp5818
g3
(g1215
S'2\x8d\x90@'
p5819
tp5820
Rp5821
ag3
(g1215
S'k\xa7\x9c>'
p5822
tp5823
Rp5824
aa(lp5825
g3
(g1215
S'\x164Y@'
p5826
tp5827
Rp5828
ag3
(g1215
S'n\xbe\xac='
p5829
tp5830
Rp5831
aa(lp5832
g3
(g1215
S'~\xf8\x9c@'
p5833
tp5834
Rp5835
ag3
(g1215
S'\xed\xb4\x87>'
p5836
tp5837
Rp5838
aa(lp5839
g3
(g1215
S'<\x1c\x80@'
p5840
tp5841
Rp5842
ag3
(g1215
S'p\xb6\x89='
p5843
tp5844
Rp5845
aa(lp5846
g3
(g1215
S'\xf4G\xa3@'
p5847
tp5848
Rp5849
ag3
(g1215
S'\x88s\x81>'
p5850
tp5851
Rp5852
aa(lp5853
g3
(g1215
S'h\r\r@'
p5854
tp5855
Rp5856
ag3
(g1215
S'\xfa\xae\x9a>'
p5857
tp5858
Rp5859
aa(lp5860
g3
(g1215
S'X]&A'
p5861
tp5862
Rp5863
ag3
(g1215
S'\x8f\x88\x03?'
p5864
tp5865
Rp5866
aa(lp5867
g3
(g1215
S'\xfe:\x8f>'
p5868
tp5869
Rp5870
ag3
(g1215
S'\x01\x86\x11?'
p5871
tp5872
Rp5873
aa(lp5874
g3
(g1215
S'z\x1e\x9b@'
p5875
tp5876
Rp5877
ag3
(g1215
S'P\xd4\xb2>'
p5878
tp5879
Rp5880
aa(lp5881
g3
(g1215
S'\x89H\x0eA'
p5882
tp5883
Rp5884
ag3
(g1215
S'LDm>'
p5885
tp5886
Rp5887
aa(lp5888
g3
(g1215
S'*\x95\xa0@'
p5889
tp5890
Rp5891
ag3
(g1215
S'\x94\xe2\x03>'
p5892
tp5893
Rp5894
aa(lp5895
g3
(g1215
S'B\xdd\xb7@'
p5896
tp5897
Rp5898
ag3
(g1215
S'^\x9a\xc7='
p5899
tp5900
Rp5901
aa(lp5902
g3
(g1215
S'\xd4\xe3\x84@'
p5903
tp5904
Rp5905
ag3
(g1215
S'\xe73\x17>'
p5906
tp5907
Rp5908
aa(lp5909
g3
(g1215
S'\x93\xee\x06@'
p5910
tp5911
Rp5912
ag3
(g1215
S'\xe8\xaf\x9d>'
p5913
tp5914
Rp5915
aa(lp5916
g3
(g1215
S'\x02\xca\xdd@'
p5917
tp5918
Rp5919
ag3
(g1215
S'\x16\xed\x8f>'
p5920
tp5921
Rp5922
aa(lp5923
g3
(g1215
S'\x08\x1f)@'
p5924
tp5925
Rp5926
ag3
(g1215
S'K\x1a\xbb>'
p5927
tp5928
Rp5929
aa(lp5930
g3
(g1215
S'`U&A'
p5931
tp5932
Rp5933
ag3
(g1215
S'\xc4\x8b\x16?'
p5934
tp5935
Rp5936
aa(lp5937
g3
(g1215
S'~\xd8\n?'
p5938
tp5939
Rp5940
ag3
(g1215
S'\xcdA\x0e?'
p5941
tp5942
Rp5943
aa(lp5944
g3
(g1215
S'\x1aV*A'
p5945
tp5946
Rp5947
ag3
(g1215
S'\x12LU?'
p5948
tp5949
Rp5950
aa(lp5951
g3
(g1215
S'>6\xf7@'
p5952
tp5953
Rp5954
ag3
(g1215
S'5\x93\x01?'
p5955
tp5956
Rp5957
aa(lp5958
g3
(g1215
S'h\xe5i@'
p5959
tp5960
Rp5961
ag3
(g1215
S'\xc6\xcc=>'
p5962
tp5963
Rp5964
aa(lp5965
g3
(g1215
S'Fo\xc3@'
p5966
tp5967
Rp5968
ag3
(g1215
S'\xe3`\xb4>'
p5969
tp5970
Rp5971
aa(lp5972
g3
(g1215
S'\xfa\xf51@'
p5973
tp5974
Rp5975
ag3
(g1215
S'\x9f\x16\x1a>'
p5976
tp5977
Rp5978
aa(lp5979
g3
(g1215
S'\xf4\xa6\x9f@'
p5980
tp5981
Rp5982
ag3
(g1215
S'-D\xfe='
p5983
tp5984
Rp5985
aa(lp5986
g3
(g1215
S'\xa5\x8d\x01A'
p5987
tp5988
Rp5989
ag3
(g1215
S':\xda->'
p5990
tp5991
Rp5992
aa(lp5993
g3
(g1215
S'T\xd2\xd3='
p5994
tp5995
Rp5996
ag3
(g1215
S'\x06xf?'
p5997
tp5998
Rp5999
aa(lp6000
g3
(g1215
S'\xa6\xc4TA'
p6001
tp6002
Rp6003
ag3
(g1215
S'(k|?'
p6004
tp6005
Rp6006
aa(lp6007
g3
(g1215
S'\x80\xe0\r@'
p6008
tp6009
Rp6010
ag3
(g1215
S'\x91=\xa4?'
p6011
tp6012
Rp6013
aa(lp6014
g3
(g1215
S'\xd5\x8c*A'
p6015
tp6016
Rp6017
ag3
(g1215
S'\x18 =?'
p6018
tp6019
Rp6020
aa(lp6021
g3
(g1215
S'\x91t\xc4@'
p6022
tp6023
Rp6024
ag3
(g1215
S'\xcb\xb3\x0f>'
p6025
tp6026
Rp6027
aa(lp6028
g3
(g1215
S'\x18\xbb_@'
p6029
tp6030
Rp6031
ag3
(g1215
S'\x87\xd1\xc4='
p6032
tp6033
Rp6034
aa(lp6035
g3
(g1215
S'\xce1\xa5@'
p6036
tp6037
Rp6038
ag3
(g1215
S'@T\x86>'
p6039
tp6040
Rp6041
aa(lp6042
g3
(g1215
S'\xda\xec\x97?'
p6043
tp6044
Rp6045
ag3
(g1215
S'\x8b\x9d\xcb>'
p6046
tp6047
Rp6048
aa(lp6049
g3
(g1215
S'8\xe4\x00A'
p6050
tp6051
Rp6052
ag3
(g1215
S'e[\xe1>'
p6053
tp6054
Rp6055
aa(lp6056
g3
(g1215
S"\xa8'\xc5?"
p6057
tp6058
Rp6059
ag3
(g1215
S'A|\xda>'
p6060
tp6061
Rp6062
aa(lp6063
g3
(g1215
S'\x16>.@'
p6064
tp6065
Rp6066
ag3
(g1215
S'\xc8u\xd9='
p6067
tp6068
Rp6069
aa(lp6070
g3
(g1215
S'\x86\x04\x0eA'
p6071
tp6072
Rp6073
ag3
(g1215
S'\xf2s\x8c>'
p6074
tp6075
Rp6076
aa(lp6077
g3
(g1215
S'\xc0\xb8\x0f@'
p6078
tp6079
Rp6080
ag3
(g1215
S'qZ\x07?'
p6081
tp6082
Rp6083
aa(lp6084
g3
(g1215
S'\x94\x0c\x96@'
p6085
tp6086
Rp6087
ag3
(g1215
S'\xa7\x19\t>'
p6088
tp6089
Rp6090
aa(lp6091
g3
(g1215
S'\xce\xcc\xa6@'
p6092
tp6093
Rp6094
ag3
(g1215
S'<\xf91='
p6095
tp6096
Rp6097
aa(lp6098
g3
(g1215
S'\x8dx\x93@'
p6099
tp6100
Rp6101
ag3
(g1215
S'@xL='
p6102
tp6103
Rp6104
aa(lp6105
g3
(g1215
S'\xc8m\xa7@'
p6106
tp6107
Rp6108
ag3
(g1215
S'h@\xf2='
p6109
tp6110
Rp6111
aa(lp6112
g3
(g1215
S'\xf7m\\@'
p6113
tp6114
Rp6115
ag3
(g1215
S'\x06&\xba='
p6116
tp6117
Rp6118
aa(lp6119
g3
(g1215
S'\xb2\xb3-@'
p6120
tp6121
Rp6122
ag3
(g1215
S'\xba\xef\x06>'
p6123
tp6124
Rp6125
aa(lp6126
g3
(g1215
S'\xe6\xee\x08A'
p6127
tp6128
Rp6129
ag3
(g1215
S'\x8f<F>'
p6130
tp6131
Rp6132
aa(lp6133
g3
(g1215
S'\x1fn\x85?'
p6134
tp6135
Rp6136
ag3
(g1215
S'i\x85\x97>'
p6137
tp6138
Rp6139
aa(lp6140
g3
(g1215
S'\x0b;\x10A'
p6141
tp6142
Rp6143
ag3
(g1215
S'2N\xa7>'
p6144
tp6145
Rp6146
aa(lp6147
g3
(g1215
S'w\xf2\x87?'
p6148
tp6149
Rp6150
ag3
(g1215
S'#Xs?'
p6151
tp6152
Rp6153
aa(lp6154
g3
(g1215
S'\xb0\xc8LA'
p6155
tp6156
Rp6157
ag3
(g1215
S'\xf8@V?'
p6158
tp6159
Rp6160
aa(lp6161
g3
(g1215
S'=\xe0/>'
p6162
tp6163
Rp6164
ag3
(g1215
S':d\x19@'
p6165
tp6166
Rp6167
aa(lp6168
g3
(g1215
S'\xa4\xe6\x11A'
p6169
tp6170
Rp6171
ag3
(g1215
S'1\xf0\xdb?'
p6172
tp6173
Rp6174
aa(lp6175
g3
(g1215
S'\xc6\xad\xb8@'
p6176
tp6177
Rp6178
ag3
(g1215
S'\xce\xcc\xd8>'
p6179
tp6180
Rp6181
aa(lp6182
g3
(g1215
S'\x82x1@'
p6183
tp6184
Rp6185
ag3
(g1215
S'\x83Np='
p6186
tp6187
Rp6188
aa(lp6189
g3
(g1215
S'\x18\x15\x88@'
p6190
tp6191
Rp6192
ag3
(g1215
S'hZ\xbb='
p6193
tp6194
Rp6195
aa(lp6196
g3
(g1215
S'\x10H\xc8@'
p6197
tp6198
Rp6199
ag3
(g1215
S'\xae\xd6\xb6='
p6200
tp6201
Rp6202
aa(lp6203
g3
(g1215
S'\xf3\xaf\x04@'
p6204
tp6205
Rp6206
ag3
(g1215
S'?d\x86>'
p6207
tp6208
Rp6209
aa(lp6210
g3
(g1215
S'\xfa\x9b\x12A'
p6211
tp6212
Rp6213
ag3
(g1215
S'\xb0\x81\x8c>'
p6214
tp6215
Rp6216
aa(lp6217
g3
(g1215
S'\xf2\x98\xf4>'
p6218
tp6219
Rp6220
ag3
(g1215
S'\xf2r\x95?'
p6221
tp6222
Rp6223
aa(lp6224
g3
(g1215
S'\xf8}.A'
p6225
tp6226
Rp6227
ag3
(g1215
S'@\xfa\x17?'
p6228
tp6229
Rp6230
aa(lp6231
g3
(g1215
S'\xab\xa1\r@'
p6232
tp6233
Rp6234
ag3
(g1215
S'w\x13\xb7>'
p6235
tp6236
Rp6237
aa(lp6238
g3
(g1215
S'\n\xea\x1fA'
p6239
tp6240
Rp6241
ag3
(g1215
S'\xa5\xf6G?'
p6242
tp6243
Rp6244
aa(lp6245
g3
(g1215
S'\xf6\x89\xd9?'
p6246
tp6247
Rp6248
ag3
(g1215
S'G\xe7=?'
p6249
tp6250
Rp6251
aa(lp6252
g3
(g1215
S'\xf5\xf8 A'
p6253
tp6254
Rp6255
ag3
(g1215
S'3_`?'
p6256
tp6257
Rp6258
aa(lp6259
g3
(g1215
S'\xb0\x93S@'
p6260
tp6261
Rp6262
ag3
(g1215
S"k'\x15?"
p6263
tp6264
Rp6265
aa(lp6266
g3
(g1215
S'\x16\xa2\xb4@'
p6267
tp6268
Rp6269
ag3
(g1215
S'\xcd\xd2\xa4>'
p6270
tp6271
Rp6272
aa(lp6273
g3
(g1215
S'\xbd^\xef@'
p6274
tp6275
Rp6276
ag3
(g1215
S'\x1b|i>'
p6277
tp6278
Rp6279
aa(lp6280
g3
(g1215
S'\xe1n\xfd?'
p6281
tp6282
Rp6283
ag3
(g1215
S'\xc2\xb4\x93>'
p6284
tp6285
Rp6286
aa(lp6287
g3
(g1215
S'\xc7C\xaf@'
p6288
tp6289
Rp6290
ag3
(g1215
S'7|\x01>'
p6291
tp6292
Rp6293
aa(lp6294
g3
(g1215
S'\xb1\xbc\xd8@'
p6295
tp6296
Rp6297
ag3
(g1215
S'\xa4n\x86>'
p6298
tp6299
Rp6300
aa(lp6301
g3
(g1215
S'\x992o?'
p6302
tp6303
Rp6304
ag3
(g1215
S'\xf19>?'
p6305
tp6306
Rp6307
aa(lp6308
g3
(g1215
S'$\xb3\x0cA'
p6309
tp6310
Rp6311
ag3
(g1215
S'\x92\x88\x0c?'
p6312
tp6313
Rp6314
aa(lp6315
g3
(g1215
S'\x14\x91\xd9?'
p6316
tp6317
Rp6318
ag3
(g1215
S'l\n\x98?'
p6319
tp6320
Rp6321
aa(lp6322
g3
(g1215
S"\xe8\x11'A"
p6323
tp6324
Rp6325
ag3
(g1215
S'\xa9p2?'
p6326
tp6327
Rp6328
aa(lp6329
g3
(g1215
S'n\xec\x85?'
p6330
tp6331
Rp6332
ag3
(g1215
S'\xb8\x90n?'
p6333
tp6334
Rp6335
aa(lp6336
g3
(g1215
S'\x08\xe58A'
p6337
tp6338
Rp6339
ag3
(g1215
S'\xe5\x8c\xb6?'
p6340
tp6341
Rp6342
aa(lp6343
g3
(g1215
S'\xf9E\x1c@'
p6344
tp6345
Rp6346
ag3
(g1215
S'Y\x9d\xc2?'
p6347
tp6348
Rp6349
aa(lp6350
g3
(g1215
S'P\x06n@'
p6351
tp6352
Rp6353
ag3
(g1215
S'b \x87>'
p6354
tp6355
Rp6356
aa(lp6357
g3
(g1215
S'\xae\xf1\xbd@'
p6358
tp6359
Rp6360
ag3
(g1215
S'G\x92\x03>'
p6361
tp6362
Rp6363
aa(lp6364
g3
(g1215
S'.\xe27@'
p6365
tp6366
Rp6367
ag3
(g1215
S'\x08\x07\x8b>'
p6368
tp6369
Rp6370
aa(lp6371
g3
(g1215
S'\xda\xb4\xcc@'
p6372
tp6373
Rp6374
ag3
(g1215
S'xd\xa2>'
p6375
tp6376
Rp6377
aa(lp6378
g3
(g1215
S'Tu\x9d='
p6379
tp6380
Rp6381
ag3
(g1215
S'\x97\x18h?'
p6382
tp6383
Rp6384
aa(lp6385
g3
(g1215
S'\xda\xee)A'
p6386
tp6387
Rp6388
ag3
(g1215
S'\xc7\xf5\xe7?'
p6389
tp6390
Rp6391
aa(lp6392
g3
(g1215
S'\x91\x1c\xe7?'
p6393
tp6394
Rp6395
ag3
(g1215
S'?f\xb7?'
p6396
tp6397
Rp6398
aa(lp6399
g3
(g1215
S'\xa6\x90\xfd@'
p6400
tp6401
Rp6402
ag3
(g1215
S'\x9f\xd2\x9e?'
p6403
tp6404
Rp6405
aa(lp6406
g3
(g1215
S'u\t\x97@'
p6407
tp6408
Rp6409
ag3
(g1215
S'C\x8b\x04?'
p6410
tp6411
Rp6412
aa(lp6413
g3
(g1215
S'\x00\x8c\x91@'
p6414
tp6415
Rp6416
ag3
(g1215
S'6\xac,>'
p6417
tp6418
Rp6419
aa(lp6420
g3
(g1215
S'\xa4\xfb7@'
p6421
tp6422
Rp6423
ag3
(g1215
S'\r73>'
p6424
tp6425
Rp6426
aa(lp6427
g3
(g1215
S'\xfc\x0e\x82@'
p6428
tp6429
Rp6430
ag3
(g1215
S'<v\x04>'
p6431
tp6432
Rp6433
aa(lp6434
g3
(g1215
S'\xcaT\xc4@'
p6435
tp6436
Rp6437
ag3
(g1215
S'6\xd5\x13>'
p6438
tp6439
Rp6440
aa(lp6441
g3
(g1215
S'\x16\x9eQ@'
p6442
tp6443
Rp6444
ag3
(g1215
S'\x86\x06\x03>'
p6445
tp6446
Rp6447
aa(lp6448
g3
(g1215
S'\xd6cp@'
p6449
tp6450
Rp6451
ag3
(g1215
S'\xf7\x84g>'
p6452
tp6453
Rp6454
aa(lp6455
g3
(g1215
S'HeB@'
p6456
tp6457
Rp6458
ag3
(g1215
S'\x9c\x9c[>'
p6459
tp6460
Rp6461
aa(lp6462
g3
(g1215
S'Y5e@'
p6463
tp6464
Rp6465
ag3
(g1215
S'\xbc.2>'
p6466
tp6467
Rp6468
aa(lp6469
g3
(g1215
S'\xa3o\x80@'
p6470
tp6471
Rp6472
ag3
(g1215
S'\xce\xedP>'
p6473
tp6474
Rp6475
aa(lp6476
g3
(g1215
S'\xb0\xdbV@'
p6477
tp6478
Rp6479
ag3
(g1215
S'7iz='
p6480
tp6481
Rp6482
aa(lp6483
g3
(g1215
S'\xcb\x15\xa2@'
p6484
tp6485
Rp6486
ag3
(g1215
S'\xd7H\x04>'
p6487
tp6488
Rp6489
aa(lp6490
g3
(g1215
S'\xcc\x8ey@'
p6491
tp6492
Rp6493
ag3
(g1215
S'\xbc\xc0+>'
p6494
tp6495
Rp6496
aa(lp6497
g3
(g1215
S'\xae\xf1\x0c@'
p6498
tp6499
Rp6500
ag3
(g1215
S'\xc05\xdc='
p6501
tp6502
Rp6503
aa(lp6504
g3
(g1215
S'\x8cQ\xb6@'
p6505
tp6506
Rp6507
ag3
(g1215
S'H\xe6\xe3='
p6508
tp6509
Rp6510
aa(lp6511
g3
(g1215
S'\xc6\x87x@'
p6512
tp6513
Rp6514
ag3
(g1215
S'8T\xeb<'
p6515
tp6516
Rp6517
aa(lp6518
g3
(g1215
S'\x1fe2@'
p6519
tp6520
Rp6521
ag3
(g1215
S'\xd4\xc1\xcf='
p6522
tp6523
Rp6524
aa(lp6525
g3
(g1215
S'R$G@'
p6526
tp6527
Rp6528
ag3
(g1215
S'\n\xa5\xb6='
p6529
tp6530
Rp6531
aa(lp6532
g3
(g1215
S'\x8c\xeaF@'
p6533
tp6534
Rp6535
ag3
(g1215
S'\xe0\x8b\x0c>'
p6536
tp6537
Rp6538
aa(lp6539
g3
(g1215
S'\x94\xb1\xa9@'
p6540
tp6541
Rp6542
ag3
(g1215
S'@\x8e\xef='
p6543
tp6544
Rp6545
aa(lp6546
g3
(g1215
S'y\x8fP@'
p6547
tp6548
Rp6549
ag3
(g1215
S'h\x89\xd4='
p6550
tp6551
Rp6552
aa(lp6553
g3
(g1215
S'\xfe\x84\xbc@'
p6554
tp6555
Rp6556
ag3
(g1215
S'\x84\xbd\x03>'
p6557
tp6558
Rp6559
aa(lp6560
g3
(g1215
S'\r\x83%@'
p6561
tp6562
Rp6563
ag3
(g1215
S'\x103\x13>'
p6564
tp6565
Rp6566
aa(lp6567
g3
(g1215
S'\xfd8\xda@'
p6568
tp6569
Rp6570
ag3
(g1215
S'd\xf5Q>'
p6571
tp6572
Rp6573
aa(lp6574
g3
(g1215
S'V\xf6u@'
p6575
tp6576
Rp6577
ag3
(g1215
S'7L\x06>'
p6578
tp6579
Rp6580
aa(lp6581
g3
(g1215
S'\xd3\x12\x15?'
p6582
tp6583
Rp6584
ag3
(g1215
S'\x0c%\x82>'
p6585
tp6586
Rp6587
aa(lp6588
g3
(g1215
S'\xce\x108A'
p6589
tp6590
Rp6591
ag3
(g1215
S'i\xf6\xeb>'
p6592
tp6593
Rp6594
aa(lp6595
g3
(g1215
S'\xa20\xaf@'
p6596
tp6597
Rp6598
ag3
(g1215
S'\xd4\x9a\x17?'
p6599
tp6600
Rp6601
aa(lp6602
g3
(g1215
S'a\xac\xf5?'
p6603
tp6604
Rp6605
ag3
(g1215
S'\x8c\xe3\xfd='
p6606
tp6607
Rp6608
aa(lp6609
g3
(g1215
S'\x00\x82)A'
p6610
tp6611
Rp6612
ag3
(g1215
S'`}\x07?'
p6613
tp6614
Rp6615
aa(lp6616
g3
(g1215
S'\xa01\x89>'
p6617
tp6618
Rp6619
ag3
(g1215
S'\x8c\xb8X?'
p6620
tp6621
Rp6622
aa(lp6623
g3
(g1215
S'\xa0\x94\x96A'
p6624
tp6625
Rp6626
ag3
(g1215
S'\\\xb7b?'
p6627
tp6628
Rp6629
aa(lp6630
g3
(g1215
S'+\x1c\xa1?'
p6631
tp6632
Rp6633
ag3
(g1215
S'|7\xbe?'
p6634
tp6635
Rp6636
aa(lp6637
g3
(g1215
S'3N\xa0@'
p6638
tp6639
Rp6640
ag3
(g1215
S'\xf7\xfc\xf6>'
p6641
tp6642
Rp6643
aa(lp6644
g3
(g1215
S'\x9b[\x01A'
p6645
tp6646
Rp6647
ag3
(g1215
S'\xf2\xed\x82>'
p6648
tp6649
Rp6650
aa(lp6651
g3
(g1215
S'>$\xb3?'
p6652
tp6653
Rp6654
ag3
(g1215
S'\x1f\x83\x83?'
p6655
tp6656
Rp6657
aa(lp6658
g3
(g1215
S':^\xbc@'
p6659
tp6660
Rp6661
ag3
(g1215
S'\x08\x96\x19?'
p6662
tp6663
Rp6664
aa(lp6665
g3
(g1215
S'\xf8\r\x83@'
p6666
tp6667
Rp6668
ag3
(g1215
S'\x01\xba\x13='
p6669
tp6670
Rp6671
aa(lp6672
g3
(g1215
S'n/i@'
p6673
tp6674
Rp6675
ag3
(g1215
S'\xdc\x03\xc5='
p6676
tp6677
Rp6678
aa(lp6679
g3
(g1215
S'\xbb\xf1\xc1@'
p6680
tp6681
Rp6682
ag3
(g1215
S'\xfc\xd6\xa4>'
p6683
tp6684
Rp6685
aa(lp6686
g3
(g1215
S'\xa5\xa7\x99?'
p6687
tp6688
Rp6689
ag3
(g1215
S'dD\xa1>'
p6690
tp6691
Rp6692
aa(lp6693
g3
(g1215
S'\xc9LUA'
p6694
tp6695
Rp6696
ag3
(g1215
S'\x1a\xd7`?'
p6697
tp6698
Rp6699
aa(lp6700
g3
(g1215
S'XRD@'
p6701
tp6702
Rp6703
ag3
(g1215
S'\x97\xed\xce?'
p6704
tp6705
Rp6706
aa(lp6707
g3
(g1215
S'\xac\xf3\xe1@'
p6708
tp6709
Rp6710
ag3
(g1215
S'E\xa8\xe9>'
p6711
tp6712
Rp6713
aa(lp6714
g3
(g1215
S'\xb3V\xe9@'
p6715
tp6716
Rp6717
ag3
(g1215
S'\xfc\xb7\xed='
p6718
tp6719
Rp6720
aa(lp6721
g3
(g1215
S'\xe0\n\x9e?'
p6722
tp6723
Rp6724
ag3
(g1215
S'\xb7=\xbe>'
p6725
tp6726
Rp6727
aa(lp6728
g3
(g1215
S'\xaa\xd1\xda@'
p6729
tp6730
Rp6731
ag3
(g1215
S'k\x93\xf5>'
p6732
tp6733
Rp6734
aa(lp6735
g3
(g1215
S'h]\xc2@'
p6736
tp6737
Rp6738
ag3
(g1215
S'\xa5Oo>'
p6739
tp6740
Rp6741
aa(lp6742
g3
(g1215
S'\x04\x15B@'
p6743
tp6744
Rp6745
ag3
(g1215
S'\xf0\x13\x0b>'
p6746
tp6747
Rp6748
aa(lp6749
g3
(g1215
S'B\xb6\xae@'
p6750
tp6751
Rp6752
ag3
(g1215
S'\x1c\xa1\xa3='
p6753
tp6754
Rp6755
aa(lp6756
g3
(g1215
S'MT\xdf@'
p6757
tp6758
Rp6759
ag3
(g1215
S'\xae[\xd8='
p6760
tp6761
Rp6762
aa(lp6763
g3
(g1215
S'\x98Z\xae?'
p6764
tp6765
Rp6766
ag3
(g1215
S'/i\x0e>'
p6767
tp6768
Rp6769
aa(lp6770
g3
(g1215
S'\xe4Hn@'
p6771
tp6772
Rp6773
ag3
(g1215
S'\x82\x15\xe2='
p6774
tp6775
Rp6776
aa(lp6777
g3
(g1215
S'\xf6\x00\x9e@'
p6778
tp6779
Rp6780
ag3
(g1215
S'\x80\x10\xc8='
p6781
tp6782
Rp6783
aa(lp6784
g3
(g1215
S'\x8a \x15@'
p6785
tp6786
Rp6787
ag3
(g1215
S'C//>'
p6788
tp6789
Rp6790
aa(lp6791
g3
(g1215
S'\xe0\xb5\x1eA'
p6792
tp6793
Rp6794
ag3
(g1215
S'e\x02\x9b>'
p6795
tp6796
Rp6797
aa(lp6798
g3
(g1215
S"\x02'}?"
p6799
tp6800
Rp6801
ag3
(g1215
S'\xa4\x04k?'
p6802
tp6803
Rp6804
aa(lp6805
g3
(g1215
S'D}/A'
p6806
tp6807
Rp6808
ag3
(g1215
S'g\x8b@?'
p6809
tp6810
Rp6811
aa(lp6812
g3
(g1215
S'\xa6\xf8\xe0='
p6813
tp6814
Rp6815
ag3
(g1215
S'?[\xcd?'
p6816
tp6817
Rp6818
aas.